

Microchip MPLAB XC8 Assembler V2.46 build 20240104201356 
                                                                                               Sun Aug 04 12:45:07 2024

Microchip MPLAB XC8 C Compiler v2.46 (Free license) build 20240104201356 Og1 
     1                           	processor	16F877A
     2                           	pagewidth 120
     3                           	opt	flic
     4                           	psect	idataBANK0,global,class=CODE,delta=2,noexec
     5                           	psect	strings,global,class=STRING,delta=2,noexec
     6                           	psect	cinit,global,class=CODE,merge=1,delta=2
     7                           	psect	bssCOMMON,global,class=COMMON,space=1,delta=1,noexec
     8                           	psect	bssBANK0,global,class=BANK0,space=1,delta=1,noexec
     9                           	psect	dataBANK0,global,class=BANK0,space=1,delta=1,noexec
    10                           	psect	inittext,global,class=CODE,delta=2
    11                           	psect	cstackCOMMON,global,class=COMMON,space=1,delta=1,noexec
    12                           	psect	cstackBANK0,global,class=BANK0,space=1,delta=1,noexec
    13                           	psect	maintext,global,class=CODE,split=1,delta=2
    14                           	psect	text1,local,class=CODE,merge=1,delta=2
    15                           	psect	text2,local,class=CODE,merge=1,delta=2
    16                           	psect	text3,local,class=CODE,merge=1,delta=2
    17                           	psect	text4,local,class=CODE,merge=1,delta=2
    18                           	psect	text5,local,class=CODE,merge=1,delta=2
    19                           	psect	text6,local,class=CODE,merge=1,delta=2
    20                           	psect	text7,local,class=CODE,merge=1,delta=2
    21                           	psect	text8,local,class=CODE,merge=1,delta=2
    22                           	psect	intentry,global,class=CODE,delta=2
    23                           	psect	text9,local,class=CODE,merge=1,delta=2
    24                           	psect	text10,local,class=CODE,merge=1,delta=2
    25                           	psect	text11,local,class=CODE,merge=1,delta=2
    26                           	psect	text12,local,class=CODE,merge=1,delta=2
    27                           	psect	text13,local,class=CODE,merge=1,delta=2
    28                           	psect	text14,local,class=CODE,merge=1,delta=2
    29                           	psect	text15,local,class=CODE,merge=1,delta=2
    30                           	psect	text16,local,class=CODE,merge=1,delta=2
    31                           	psect	functab,global,class=ENTRY,delta=2
    32                           	psect	config,global,abs,ovrld,class=CONFIG,space=4,delta=2,noexec
    33                           	dabs	1,0x7E,2
    34     0000                     
    35                           ; Generated 12/10/2023 GMT
    36                           ; 
    37                           ; Copyright © 2023, Microchip Technology Inc. and its subsidiaries ("Microchip")
    38                           ; All rights reserved.
    39                           ; 
    40                           ; This software is developed by Microchip Technology Inc. and its subsidiaries ("Microch
      +                          ip").
    41                           ; 
    42                           ; Redistribution and use in source and binary forms, with or without modification, are
    43                           ; permitted provided that the following conditions are met:
    44                           ; 
    45                           ;     1. Redistributions of source code must retain the above copyright notice, this lis
      +                          t of
    46                           ;        conditions and the following disclaimer.
    47                           ; 
    48                           ;     2. Redistributions in binary form must reproduce the above copyright notice, this 
      +                          list
    49                           ;        of conditions and the following disclaimer in the documentation and/or other
    50                           ;        materials provided with the distribution. Publication is not required when
    51                           ;        this file is used in an embedded application.
    52                           ; 
    53                           ;     3. Microchip's name may not be used to endorse or promote products derived from th
      +                          is
    54                           ;        software without specific prior written permission.
    55                           ; 
    56                           ; THIS SOFTWARE IS PROVIDED BY MICROCHIP "AS IS" AND ANY EXPRESS OR IMPLIED WARRANTIES,
    57                           ; INCLUDING, BUT NOT LIMITED TO, THE IMPLIED WARRANTIES OF MERCHANTABILITY AND FITNESS F
      +                          OR
    58                           ; PURPOSE ARE DISCLAIMED.  IN NO EVENT SHALL MICROCHIP BE LIABLE FOR ANY DIRECT, INDIREC
      +                          T,
    59                           ; INCIDENTAL, SPECIAL, EXEMPLARY, OR CONSEQUENTIAL DAMAGES (INCLUDING BUT NOT LIMITED TO
    60                           ; PROCUREMENT OF SUBSTITUTE GOODS OR SERVICES; LOSS OF USE, DATA OR PROFITS; OR BUSINESS
    61                           ; INTERRUPTION) HOWSOEVER CAUSED AND ON ANY THEORY OF LIABILITY, WHETHER IN CONTRACT, ST
      +                          RICT
    62                           ; LIABILITY, OR TORT (INCLUDING NEGLIGENCE OR OTHERWISE) ARISING IN ANY WAY OUT OF THE U
      +                          SE OF
    63                           ; THIS SOFTWARE, EVEN IF ADVISED OF THE POSSIBILITY OF SUCH DAMAGE.
    64                           ; 
    65                           ; 
    66                           ; Code-generator required, PIC16F877A Definitions
    67                           ; 
    68                           ; SFR Addresses
    69     0000                     	;# 
    70     0001                     	;# 
    71     0002                     	;# 
    72     0003                     	;# 
    73     0004                     	;# 
    74     0005                     	;# 
    75     0006                     	;# 
    76     0007                     	;# 
    77     0008                     	;# 
    78     0009                     	;# 
    79     000A                     	;# 
    80     000B                     	;# 
    81     000C                     	;# 
    82     000D                     	;# 
    83     000E                     	;# 
    84     000E                     	;# 
    85     000F                     	;# 
    86     0010                     	;# 
    87     0011                     	;# 
    88     0012                     	;# 
    89     0013                     	;# 
    90     0014                     	;# 
    91     0015                     	;# 
    92     0015                     	;# 
    93     0016                     	;# 
    94     0017                     	;# 
    95     0018                     	;# 
    96     0019                     	;# 
    97     001A                     	;# 
    98     001B                     	;# 
    99     001B                     	;# 
   100     001C                     	;# 
   101     001D                     	;# 
   102     001E                     	;# 
   103     001F                     	;# 
   104     0081                     	;# 
   105     0085                     	;# 
   106     0086                     	;# 
   107     0087                     	;# 
   108     0088                     	;# 
   109     0089                     	;# 
   110     008C                     	;# 
   111     008D                     	;# 
   112     008E                     	;# 
   113     0091                     	;# 
   114     0092                     	;# 
   115     0093                     	;# 
   116     0094                     	;# 
   117     0098                     	;# 
   118     0099                     	;# 
   119     009C                     	;# 
   120     009D                     	;# 
   121     009E                     	;# 
   122     009F                     	;# 
   123     010C                     	;# 
   124     010D                     	;# 
   125     010E                     	;# 
   126     010F                     	;# 
   127     018C                     	;# 
   128     018D                     	;# 
   129     0000                     	;# 
   130     0001                     	;# 
   131     0002                     	;# 
   132     0003                     	;# 
   133     0004                     	;# 
   134     0005                     	;# 
   135     0006                     	;# 
   136     0007                     	;# 
   137     0008                     	;# 
   138     0009                     	;# 
   139     000A                     	;# 
   140     000B                     	;# 
   141     000C                     	;# 
   142     000D                     	;# 
   143     000E                     	;# 
   144     000E                     	;# 
   145     000F                     	;# 
   146     0010                     	;# 
   147     0011                     	;# 
   148     0012                     	;# 
   149     0013                     	;# 
   150     0014                     	;# 
   151     0015                     	;# 
   152     0015                     	;# 
   153     0016                     	;# 
   154     0017                     	;# 
   155     0018                     	;# 
   156     0019                     	;# 
   157     001A                     	;# 
   158     001B                     	;# 
   159     001B                     	;# 
   160     001C                     	;# 
   161     001D                     	;# 
   162     001E                     	;# 
   163     001F                     	;# 
   164     0081                     	;# 
   165     0085                     	;# 
   166     0086                     	;# 
   167     0087                     	;# 
   168     0088                     	;# 
   169     0089                     	;# 
   170     008C                     	;# 
   171     008D                     	;# 
   172     008E                     	;# 
   173     0091                     	;# 
   174     0092                     	;# 
   175     0093                     	;# 
   176     0094                     	;# 
   177     0098                     	;# 
   178     0099                     	;# 
   179     009C                     	;# 
   180     009D                     	;# 
   181     009E                     	;# 
   182     009F                     	;# 
   183     010C                     	;# 
   184     010D                     	;# 
   185     010E                     	;# 
   186     010F                     	;# 
   187     018C                     	;# 
   188     018D                     	;# 
   189     0000                     	;# 
   190     0001                     	;# 
   191     0002                     	;# 
   192     0003                     	;# 
   193     0004                     	;# 
   194     0005                     	;# 
   195     0006                     	;# 
   196     0007                     	;# 
   197     0008                     	;# 
   198     0009                     	;# 
   199     000A                     	;# 
   200     000B                     	;# 
   201     000C                     	;# 
   202     000D                     	;# 
   203     000E                     	;# 
   204     000E                     	;# 
   205     000F                     	;# 
   206     0010                     	;# 
   207     0011                     	;# 
   208     0012                     	;# 
   209     0013                     	;# 
   210     0014                     	;# 
   211     0015                     	;# 
   212     0015                     	;# 
   213     0016                     	;# 
   214     0017                     	;# 
   215     0018                     	;# 
   216     0019                     	;# 
   217     001A                     	;# 
   218     001B                     	;# 
   219     001B                     	;# 
   220     001C                     	;# 
   221     001D                     	;# 
   222     001E                     	;# 
   223     001F                     	;# 
   224     0081                     	;# 
   225     0085                     	;# 
   226     0086                     	;# 
   227     0087                     	;# 
   228     0088                     	;# 
   229     0089                     	;# 
   230     008C                     	;# 
   231     008D                     	;# 
   232     008E                     	;# 
   233     0091                     	;# 
   234     0092                     	;# 
   235     0093                     	;# 
   236     0094                     	;# 
   237     0098                     	;# 
   238     0099                     	;# 
   239     009C                     	;# 
   240     009D                     	;# 
   241     009E                     	;# 
   242     009F                     	;# 
   243     010C                     	;# 
   244     010D                     	;# 
   245     010E                     	;# 
   246     010F                     	;# 
   247     018C                     	;# 
   248     018D                     	;# 
   249     0000                     	;# 
   250     0001                     	;# 
   251     0002                     	;# 
   252     0003                     	;# 
   253     0004                     	;# 
   254     0005                     	;# 
   255     0006                     	;# 
   256     0007                     	;# 
   257     0008                     	;# 
   258     0009                     	;# 
   259     000A                     	;# 
   260     000B                     	;# 
   261     000C                     	;# 
   262     000D                     	;# 
   263     000E                     	;# 
   264     000E                     	;# 
   265     000F                     	;# 
   266     0010                     	;# 
   267     0011                     	;# 
   268     0012                     	;# 
   269     0013                     	;# 
   270     0014                     	;# 
   271     0015                     	;# 
   272     0015                     	;# 
   273     0016                     	;# 
   274     0017                     	;# 
   275     0018                     	;# 
   276     0019                     	;# 
   277     001A                     	;# 
   278     001B                     	;# 
   279     001B                     	;# 
   280     001C                     	;# 
   281     001D                     	;# 
   282     001E                     	;# 
   283     001F                     	;# 
   284     0081                     	;# 
   285     0085                     	;# 
   286     0086                     	;# 
   287     0087                     	;# 
   288     0088                     	;# 
   289     0089                     	;# 
   290     008C                     	;# 
   291     008D                     	;# 
   292     008E                     	;# 
   293     0091                     	;# 
   294     0092                     	;# 
   295     0093                     	;# 
   296     0094                     	;# 
   297     0098                     	;# 
   298     0099                     	;# 
   299     009C                     	;# 
   300     009D                     	;# 
   301     009E                     	;# 
   302     009F                     	;# 
   303     010C                     	;# 
   304     010D                     	;# 
   305     010E                     	;# 
   306     010F                     	;# 
   307     018C                     	;# 
   308     018D                     	;# 
   309     0000                     	;# 
   310     0001                     	;# 
   311     0002                     	;# 
   312     0003                     	;# 
   313     0004                     	;# 
   314     0005                     	;# 
   315     0006                     	;# 
   316     0007                     	;# 
   317     0008                     	;# 
   318     0009                     	;# 
   319     000A                     	;# 
   320     000B                     	;# 
   321     000C                     	;# 
   322     000D                     	;# 
   323     000E                     	;# 
   324     000E                     	;# 
   325     000F                     	;# 
   326     0010                     	;# 
   327     0011                     	;# 
   328     0012                     	;# 
   329     0013                     	;# 
   330     0014                     	;# 
   331     0015                     	;# 
   332     0015                     	;# 
   333     0016                     	;# 
   334     0017                     	;# 
   335     0018                     	;# 
   336     0019                     	;# 
   337     001A                     	;# 
   338     001B                     	;# 
   339     001B                     	;# 
   340     001C                     	;# 
   341     001D                     	;# 
   342     001E                     	;# 
   343     001F                     	;# 
   344     0081                     	;# 
   345     0085                     	;# 
   346     0086                     	;# 
   347     0087                     	;# 
   348     0088                     	;# 
   349     0089                     	;# 
   350     008C                     	;# 
   351     008D                     	;# 
   352     008E                     	;# 
   353     0091                     	;# 
   354     0092                     	;# 
   355     0093                     	;# 
   356     0094                     	;# 
   357     0098                     	;# 
   358     0099                     	;# 
   359     009C                     	;# 
   360     009D                     	;# 
   361     009E                     	;# 
   362     009F                     	;# 
   363     010C                     	;# 
   364     010D                     	;# 
   365     010E                     	;# 
   366     010F                     	;# 
   367     018C                     	;# 
   368     018D                     	;# 
   369     0000                     	;# 
   370     0001                     	;# 
   371     0002                     	;# 
   372     0003                     	;# 
   373     0004                     	;# 
   374     0005                     	;# 
   375     0006                     	;# 
   376     0007                     	;# 
   377     0008                     	;# 
   378     0009                     	;# 
   379     000A                     	;# 
   380     000B                     	;# 
   381     000C                     	;# 
   382     000D                     	;# 
   383     000E                     	;# 
   384     000E                     	;# 
   385     000F                     	;# 
   386     0010                     	;# 
   387     0011                     	;# 
   388     0012                     	;# 
   389     0013                     	;# 
   390     0014                     	;# 
   391     0015                     	;# 
   392     0015                     	;# 
   393     0016                     	;# 
   394     0017                     	;# 
   395     0018                     	;# 
   396     0019                     	;# 
   397     001A                     	;# 
   398     001B                     	;# 
   399     001B                     	;# 
   400     001C                     	;# 
   401     001D                     	;# 
   402     001E                     	;# 
   403     001F                     	;# 
   404     0081                     	;# 
   405     0085                     	;# 
   406     0086                     	;# 
   407     0087                     	;# 
   408     0088                     	;# 
   409     0089                     	;# 
   410     008C                     	;# 
   411     008D                     	;# 
   412     008E                     	;# 
   413     0091                     	;# 
   414     0092                     	;# 
   415     0093                     	;# 
   416     0094                     	;# 
   417     0098                     	;# 
   418     0099                     	;# 
   419     009C                     	;# 
   420     009D                     	;# 
   421     009E                     	;# 
   422     009F                     	;# 
   423     010C                     	;# 
   424     010D                     	;# 
   425     010E                     	;# 
   426     010F                     	;# 
   427     018C                     	;# 
   428     018D                     	;# 
   429     0000                     	;# 
   430     0001                     	;# 
   431     0002                     	;# 
   432     0003                     	;# 
   433     0004                     	;# 
   434     0005                     	;# 
   435     0006                     	;# 
   436     0007                     	;# 
   437     0008                     	;# 
   438     0009                     	;# 
   439     000A                     	;# 
   440     000B                     	;# 
   441     000C                     	;# 
   442     000D                     	;# 
   443     000E                     	;# 
   444     000E                     	;# 
   445     000F                     	;# 
   446     0010                     	;# 
   447     0011                     	;# 
   448     0012                     	;# 
   449     0013                     	;# 
   450     0014                     	;# 
   451     0015                     	;# 
   452     0015                     	;# 
   453     0016                     	;# 
   454     0017                     	;# 
   455     0018                     	;# 
   456     0019                     	;# 
   457     001A                     	;# 
   458     001B                     	;# 
   459     001B                     	;# 
   460     001C                     	;# 
   461     001D                     	;# 
   462     001E                     	;# 
   463     001F                     	;# 
   464     0081                     	;# 
   465     0085                     	;# 
   466     0086                     	;# 
   467     0087                     	;# 
   468     0088                     	;# 
   469     0089                     	;# 
   470     008C                     	;# 
   471     008D                     	;# 
   472     008E                     	;# 
   473     0091                     	;# 
   474     0092                     	;# 
   475     0093                     	;# 
   476     0094                     	;# 
   477     0098                     	;# 
   478     0099                     	;# 
   479     009C                     	;# 
   480     009D                     	;# 
   481     009E                     	;# 
   482     009F                     	;# 
   483     010C                     	;# 
   484     010D                     	;# 
   485     010E                     	;# 
   486     010F                     	;# 
   487     018C                     	;# 
   488     018D                     	;# 
   489     0000                     	;# 
   490     0001                     	;# 
   491     0002                     	;# 
   492     0003                     	;# 
   493     0004                     	;# 
   494     0005                     	;# 
   495     0006                     	;# 
   496     0007                     	;# 
   497     0008                     	;# 
   498     0009                     	;# 
   499     000A                     	;# 
   500     000B                     	;# 
   501     000C                     	;# 
   502     000D                     	;# 
   503     000E                     	;# 
   504     000E                     	;# 
   505     000F                     	;# 
   506     0010                     	;# 
   507     0011                     	;# 
   508     0012                     	;# 
   509     0013                     	;# 
   510     0014                     	;# 
   511     0015                     	;# 
   512     0015                     	;# 
   513     0016                     	;# 
   514     0017                     	;# 
   515     0018                     	;# 
   516     0019                     	;# 
   517     001A                     	;# 
   518     001B                     	;# 
   519     001B                     	;# 
   520     001C                     	;# 
   521     001D                     	;# 
   522     001E                     	;# 
   523     001F                     	;# 
   524     0081                     	;# 
   525     0085                     	;# 
   526     0086                     	;# 
   527     0087                     	;# 
   528     0088                     	;# 
   529     0089                     	;# 
   530     008C                     	;# 
   531     008D                     	;# 
   532     008E                     	;# 
   533     0091                     	;# 
   534     0092                     	;# 
   535     0093                     	;# 
   536     0094                     	;# 
   537     0098                     	;# 
   538     0099                     	;# 
   539     009C                     	;# 
   540     009D                     	;# 
   541     009E                     	;# 
   542     009F                     	;# 
   543     010C                     	;# 
   544     010D                     	;# 
   545     010E                     	;# 
   546     010F                     	;# 
   547     018C                     	;# 
   548     018D                     	;# 
   549     0000                     	;# 
   550     0001                     	;# 
   551     0002                     	;# 
   552     0003                     	;# 
   553     0004                     	;# 
   554     0005                     	;# 
   555     0006                     	;# 
   556     0007                     	;# 
   557     0008                     	;# 
   558     0009                     	;# 
   559     000A                     	;# 
   560     000B                     	;# 
   561     000C                     	;# 
   562     000D                     	;# 
   563     000E                     	;# 
   564     000E                     	;# 
   565     000F                     	;# 
   566     0010                     	;# 
   567     0011                     	;# 
   568     0012                     	;# 
   569     0013                     	;# 
   570     0014                     	;# 
   571     0015                     	;# 
   572     0015                     	;# 
   573     0016                     	;# 
   574     0017                     	;# 
   575     0018                     	;# 
   576     0019                     	;# 
   577     001A                     	;# 
   578     001B                     	;# 
   579     001B                     	;# 
   580     001C                     	;# 
   581     001D                     	;# 
   582     001E                     	;# 
   583     001F                     	;# 
   584     0081                     	;# 
   585     0085                     	;# 
   586     0086                     	;# 
   587     0087                     	;# 
   588     0088                     	;# 
   589     0089                     	;# 
   590     008C                     	;# 
   591     008D                     	;# 
   592     008E                     	;# 
   593     0091                     	;# 
   594     0092                     	;# 
   595     0093                     	;# 
   596     0094                     	;# 
   597     0098                     	;# 
   598     0099                     	;# 
   599     009C                     	;# 
   600     009D                     	;# 
   601     009E                     	;# 
   602     009F                     	;# 
   603     010C                     	;# 
   604     010D                     	;# 
   605     010E                     	;# 
   606     010F                     	;# 
   607     018C                     	;# 
   608     018D                     	;# 
   609                           
   610                           	psect	idataBANK0
   611     0462                     __pidataBANK0:
   612                           
   613                           ;initializer for _port_registers
   614     0462  3405               	retlw	5
   615     0463  3400               	retlw	0
   616     0464  3406               	retlw	6
   617     0465  3400               	retlw	0
   618     0466  3407               	retlw	7
   619     0467  3400               	retlw	0
   620     0468  3408               	retlw	8
   621     0469  3400               	retlw	0
   622     046A  3409               	retlw	9
   623     046B  3400               	retlw	0
   624                           
   625                           ;initializer for _tris_registers
   626     046C  3485               	retlw	133
   627     046D  3400               	retlw	0
   628     046E  3486               	retlw	134
   629     046F  3400               	retlw	0
   630     0470  3487               	retlw	135
   631     0471  3400               	retlw	0
   632     0472  3488               	retlw	136
   633     0473  3400               	retlw	0
   634     0474  3489               	retlw	137
   635     0475  3400               	retlw	0
   636                           
   637                           ;initializer for _lcd
   638     0476  3402               	retlw	2
   639     0477  340A               	retlw	10
   640     0478  3412               	retlw	18
   641     0479  341A               	retlw	26
   642     047A  3422               	retlw	34
   643     047B  342A               	retlw	42
   644                           
   645                           ;initializer for _int1
   646     047C  3401               	retlw	low (fp__isr-i1fpbase)
   647     047D  3400               	retlw	0
   648                           
   649                           ;initializer for _motor2
   650     047E  3411               	retlw	17
   651     047F  3419               	retlw	25
   652                           
   653                           ;initializer for _motor1
   654     0480  3401               	retlw	1
   655     0481  3409               	retlw	9
   656                           
   657                           ;initializer for Enable_INTX@F1629
   658     0482  3481               	retlw	129
   659                           
   660                           ;initializer for _pin8
   661     0483  343B               	retlw	59
   662                           
   663                           ;initializer for _pin7
   664     0484  3433               	retlw	51
   665                           
   666                           ;initializer for _pin6
   667     0485  342B               	retlw	43
   668                           
   669                           ;initializer for _pin5
   670     0486  3423               	retlw	35
   671                           
   672                           ;initializer for _pin4
   673     0487  341B               	retlw	27
   674                           
   675                           ;initializer for _pin3
   676     0488  3413               	retlw	19
   677                           
   678                           ;initializer for _rb2
   679     0489  3404               	retlw	low (fp__rb_isr-i1fpbase)
   680     048A  3404               	retlw	low (fp__rb_isr-i1fpbase)
   681     048B  34A1               	retlw	161
   682                           
   683                           ;initializer for _pin2
   684     048C  340B               	retlw	11
   685                           
   686                           ;initializer for _pin1
   687     048D  3403               	retlw	3
   688     0006                     _PORTBbits	set	6
   689     000B                     _INTCONbits	set	11
   690     0009                     _PORTE	set	9
   691     0008                     _PORTD	set	8
   692     0007                     _PORTC	set	7
   693     0006                     _PORTB	set	6
   694     0005                     _PORTA	set	5
   695     0081                     _OPTION_REGbits	set	129
   696     0089                     _TRISE	set	137
   697     0088                     _TRISD	set	136
   698     0087                     _TRISC	set	135
   699     0086                     _TRISB	set	134
   700     0085                     _TRISA	set	133
   701                           
   702                           	psect	strings
   703     0572                     __pstrings:
   704     0572                     stringtab:
   705     0572                     __stringtab:
   706     0572                     stringcode:	
   707                           ;	String table - string pointers are 1 byte each
   708                           
   709     0572                     stringdir:
   710     0572  3005               	movlw	high stringdir
   711     0573  008A               	movwf	10
   712     0574  0804               	movf	4,w
   713     0575  0A84               	incf	4,f
   714     0576  0782               	addwf	2,f
   715     0577                     __stringbase:
   716     0577  3400               	retlw	0
   717     0578                     __end_of__stringtab:
   718     0578                     STR_1:
   719     0578  3425               	retlw	37	;'%'
   720     0579  3469               	retlw	105	;'i'
   721     057A  3400               	retlw	0
   722     0578                     
   723                           	psect	cinit
   724     0013                     start_initialization:	
   725                           ; #config settings
   726                           
   727     0013                     __initialization:
   728                           
   729                           ; Initialize objects allocated to BANK0
   730     0013  1383               	bcf	3,7	;select IRP bank0
   731     0014  304C               	movlw	low (__pdataBANK0+44)
   732     0015  00FD               	movwf	btemp+-1
   733     0016  3004               	movlw	high __pidataBANK0
   734     0017  00FE               	movwf	btemp
   735     0018  3062               	movlw	low __pidataBANK0
   736     0019  00FF               	movwf	btemp+1
   737     001A  3020               	movlw	low __pdataBANK0
   738     001B  0084               	movwf	4
   739     001C  120A  118A  253A  120A  118A  	fcall	init_ram0
   740                           
   741                           ; Clear objects allocated to BANK0
   742     0021  01D8               	clrf	__pbssBANK0& (0+127)
   743     0022  01D9               	clrf	(__pbssBANK0+1)& (0+127)
   744     0023  01DA               	clrf	(__pbssBANK0+2)& (0+127)
   745     0024  01DB               	clrf	(__pbssBANK0+3)& (0+127)
   746     0025  01DC               	clrf	(__pbssBANK0+4)& (0+127)
   747     0026  01DD               	clrf	(__pbssBANK0+5)& (0+127)
   748     0027  01DE               	clrf	(__pbssBANK0+6)& (0+127)
   749                           
   750                           ; Clear objects allocated to COMMON
   751     0028  01FB               	clrf	__pbssCOMMON& (0+127)
   752     0029  01FC               	clrf	(__pbssCOMMON+1)& (0+127)
   753     002A  01FD               	clrf	(__pbssCOMMON+2)& (0+127)
   754     002B                     end_of_initialization:	
   755                           ;End of C runtime variable initialization code
   756                           
   757     002B                     __end_of__initialization:
   758     002B  0183               	clrf	3
   759     002C  120A  118A  2D49   	ljmp	_main	;jump to C main() function
   760                           
   761                           	psect	bssCOMMON
   762     007B                     __pbssCOMMON:
   763     007B                     _counter:
   764     007B                     	ds	1
   765     007C                     _EXT_RB4_HIGH_HANDLER:
   766     007C                     	ds	1
   767     007D                     _EXT_INTX_HANDLER:
   768     007D                     	ds	1
   769                           
   770                           	psect	bssBANK0
   771     0058                     __pbssBANK0:
   772     0058                     _EXT_RB7_LOW_HANDLER:
   773     0058                     	ds	1
   774     0059                     _EXT_RB7_HIGH_HANDLER:
   775     0059                     	ds	1
   776     005A                     _EXT_RB6_LOW_HANDLER:
   777     005A                     	ds	1
   778     005B                     _EXT_RB6_HIGH_HANDLER:
   779     005B                     	ds	1
   780     005C                     _EXT_RB5_LOW_HANDLER:
   781     005C                     	ds	1
   782     005D                     _EXT_RB5_HIGH_HANDLER:
   783     005D                     	ds	1
   784     005E                     _EXT_RB4_LOW_HANDLER:
   785     005E                     	ds	1
   786                           
   787                           	psect	dataBANK0
   788     0020                     __pdataBANK0:
   789     0020                     _port_registers:
   790     0020                     	ds	10
   791     002A                     _tris_registers:
   792     002A                     	ds	10
   793     0034                     _lcd:
   794     0034                     	ds	6
   795     003A                     _int1:
   796     003A                     	ds	2
   797     003C                     _motor2:
   798     003C                     	ds	2
   799     003E                     _motor1:
   800     003E                     	ds	2
   801     0040                     Enable_INTX@F1629:
   802     0040                     	ds	1
   803     0041                     _pin8:
   804     0041                     	ds	1
   805     0042                     _pin7:
   806     0042                     	ds	1
   807     0043                     _pin6:
   808     0043                     	ds	1
   809     0044                     _pin5:
   810     0044                     	ds	1
   811     0045                     _pin4:
   812     0045                     	ds	1
   813     0046                     _pin3:
   814     0046                     	ds	1
   815     0047                     _rb2:
   816     0047                     	ds	3
   817     004A                     _pin2:
   818     004A                     	ds	1
   819     004B                     _pin1:
   820     004B                     	ds	1
   821                           
   822                           	psect	inittext
   823     0536                     init_fetch0:	
   824                           ;	Called with low address in FSR and high address in W
   825                           
   826     0536  087E               	movf	btemp,w
   827     0537  008A               	movwf	10
   828     0538  087F               	movf	btemp+1,w
   829     0539  0082               	movwf	2
   830     053A                     init_ram0:	
   831                           ;Called with:
   832                           ;	high address of idata address in btemp 
   833                           ;	low address of idata address in btemp+1 
   834                           ;	low address of data in FSR
   835                           ;	high address + 1 of data in btemp-1
   836                           
   837     053A  120A  118A  2536  120A  118A  	fcall	init_fetch0
   838     053F  0080               	movwf	0
   839     0540  0A84               	incf	4,f
   840     0541  0804               	movf	4,w
   841     0542  067D               	xorwf	btemp+-1,w
   842     0543  1903               	btfsc	3,2
   843     0544  3400               	retlw	0
   844     0545  0AFF               	incf	btemp+1,f
   845     0546  1903               	btfsc	3,2
   846     0547  0AFE               	incf	btemp,f
   847     0548  2D3A               	goto	init_ram0
   848                           
   849                           	psect	cstackCOMMON
   850     0070                     __pcstackCOMMON:
   851     0070                     ?_gpio_pin_initialize:
   852     0070                     ?_EXT_Rbx_Fun:	
   853                           ; 1 bytes @ 0x0
   854                           
   855     0070                     ?_apllication_initilaize:	
   856                           ; 1 bytes @ 0x0
   857                           
   858     0070                     ?_ecu_initialzie:	
   859                           ; 1 bytes @ 0x0
   860                           
   861     0070                     ?_gpio_pin_direction_initialize:	
   862                           ; 1 bytes @ 0x0
   863                           
   864     0070                     ?_gpio_pin_toggle_logic:	
   865                           ; 1 bytes @ 0x0
   866                           
   867     0070                     ??_gpio_pin_toggle_logic:	
   868                           ; 1 bytes @ 0x0
   869                           
   870     0070                     ?_ISR_INTX:	
   871                           ; 1 bytes @ 0x0
   872                           
   873     0070                     ?_ISR_RB4:	
   874                           ; 1 bytes @ 0x0
   875                           
   876     0070                     ?_ISR_RB5:	
   877                           ; 1 bytes @ 0x0
   878                           
   879     0070                     ?_ISR_RB6:	
   880                           ; 1 bytes @ 0x0
   881                           
   882     0070                     ?_ISR_RB7:	
   883                           ; 1 bytes @ 0x0
   884                           
   885     0070                     ?_Enable_RBX:	
   886                           ; 1 bytes @ 0x0
   887                           
   888     0070                     ?_InterruptManager:	
   889                           ; 1 bytes @ 0x0
   890                           
   891     0070                     ?_isr:	
   892                           ; 1 bytes @ 0x0
   893                           
   894     0070                     ?_rb_isr:	
   895                           ; 1 bytes @ 0x0
   896                           
   897     0070                     ?_main:	
   898                           ; 1 bytes @ 0x0
   899                           
   900                           
   901                           ; 2 bytes @ 0x0
   902     0070                     	ds	5
   903     0075                     gpio_pin_toggle_logic@pin:
   904                           
   905                           ; 1 bytes @ 0x5
   906     0075                     	ds	1
   907     0076                     ??_ISR_INTX:
   908     0076                     ??_ISR_RB4:	
   909                           ; 1 bytes @ 0x6
   910                           
   911     0076                     ??_ISR_RB5:	
   912                           ; 1 bytes @ 0x6
   913                           
   914     0076                     ??_ISR_RB6:	
   915                           ; 1 bytes @ 0x6
   916                           
   917     0076                     ??_ISR_RB7:	
   918                           ; 1 bytes @ 0x6
   919                           
   920     0076                     ??_isr:	
   921                           ; 1 bytes @ 0x6
   922                           
   923     0076                     ??_rb_isr:	
   924                           ; 1 bytes @ 0x6
   925                           
   926     0076                     ISR_RB4@n:	
   927                           ; 1 bytes @ 0x6
   928                           
   929     0076                     ISR_RB5@n:	
   930                           ; 1 bytes @ 0x6
   931                           
   932     0076                     ISR_RB6@n:	
   933                           ; 1 bytes @ 0x6
   934                           
   935     0076                     ISR_RB7@n:	
   936                           ; 1 bytes @ 0x6
   937                           
   938                           
   939                           ; 1 bytes @ 0x6
   940     0076                     	ds	1
   941     0077                     ??_InterruptManager:
   942                           
   943                           ; 1 bytes @ 0x7
   944     0077                     	ds	4
   945                           
   946                           	psect	cstackBANK0
   947     004C                     __pcstackBANK0:
   948     004C                     ?_gpio_pin_write_logic:
   949     004C                     ??_EXT_Rbx_Fun:	
   950                           ; 1 bytes @ 0x0
   951                           
   952     004C                     ??_gpio_pin_direction_initialize:	
   953                           ; 1 bytes @ 0x0
   954                           
   955     004C                     gpio_pin_write_logic@logic:	
   956                           ; 1 bytes @ 0x0
   957                           
   958                           
   959                           ; 1 bytes @ 0x0
   960     004C                     	ds	1
   961     004D                     ??_gpio_pin_write_logic:
   962     004D                     EXT_Rbx_Fun@rbx:	
   963                           ; 1 bytes @ 0x1
   964                           
   965                           
   966                           ; 1 bytes @ 0x1
   967     004D                     	ds	4
   968     0051                     gpio_pin_direction_initialize@ret:
   969                           
   970                           ; 1 bytes @ 0x5
   971     0051                     	ds	1
   972     0052                     gpio_pin_direction_initialize@pin:
   973     0052                     gpio_pin_write_logic@ret:	
   974                           ; 1 bytes @ 0x6
   975                           
   976                           
   977                           ; 1 bytes @ 0x6
   978     0052                     	ds	1
   979     0053                     ??_Enable_RBX:
   980     0053                     gpio_pin_write_logic@pin:	
   981                           ; 1 bytes @ 0x7
   982                           
   983     0053                     Enable_RBX@rbx:	
   984                           ; 1 bytes @ 0x7
   985                           
   986                           
   987                           ; 1 bytes @ 0x7
   988     0053                     	ds	1
   989     0054                     ??_gpio_pin_initialize:
   990                           
   991                           ; 1 bytes @ 0x8
   992     0054                     	ds	2
   993     0056                     gpio_pin_initialize@ret:
   994                           
   995                           ; 1 bytes @ 0xA
   996     0056                     	ds	1
   997     0057                     gpio_pin_initialize@pin:
   998                           
   999                           ; 1 bytes @ 0xB
  1000     0057                     	ds	1
  1001     0058                     ??_apllication_initilaize:
  1002     0058                     ??_ecu_initialzie:	
  1003                           ; 1 bytes @ 0xC
  1004                           
  1005     0058                     ??_main:	
  1006                           ; 1 bytes @ 0xC
  1007                           
  1008                           
  1009                           	psect	maintext
  1010     0549                     __pmaintext:	
  1011                           ; 1 bytes @ 0xC
  1012 ;;
  1013 ;;Main: autosize = 0, tempsize = 0, incstack = 0, save=0
  1014 ;;
  1015 ;; *************** function _main *****************
  1016 ;; Defined at:
  1017 ;;		line 18 in file "Temperature_Controlled_Fan_System.c"
  1018 ;; Parameters:    Size  Location     Type
  1019 ;;		None
  1020 ;; Auto vars:     Size  Location     Type
  1021 ;;		None
  1022 ;; Return value:  Size  Location     Type
  1023 ;;                  2  488[None  ] int 
  1024 ;; Registers used:
  1025 ;;		wreg, fsr0l, fsr0h, status,2, status,0, btemp+1, pclath, cstack
  1026 ;; Tracked objects:
  1027 ;;		On entry : B00/0
  1028 ;;		On exit  : 0/0
  1029 ;;		Unchanged: 0/0
  1030 ;; Data sizes:     COMMON   BANK0   BANK1   BANK3   BANK2
  1031 ;;      Params:         0       0       0       0       0
  1032 ;;      Locals:         0       0       0       0       0
  1033 ;;      Temps:          0       0       0       0       0
  1034 ;;      Totals:         0       0       0       0       0
  1035 ;;Total ram usage:        0 bytes
  1036 ;; Hardware stack levels required when called: 8
  1037 ;; This function calls:
  1038 ;;		_Enable_RBX
  1039 ;;		_apllication_initilaize
  1040 ;; This function is called by:
  1041 ;;		Startup code after reset
  1042 ;; This function uses a non-reentrant model
  1043 ;;
  1044                           
  1045     0549                     _main:	
  1046                           ;psect for function _main
  1047                           
  1048     0549                     l2474:	
  1049                           ;incstack = 0
  1050                           ; Regs used in _main: [wreg-fsr0h+status,2+status,0+btemp+1+pclath+cstack]
  1051                           
  1052                           
  1053                           ;Temperature_Controlled_Fan_System.c: 19:     apllication_initilaize();
  1054     0549  120A  118A  2589  120A  118A  	fcall	_apllication_initilaize
  1055                           
  1056                           ;Temperature_Controlled_Fan_System.c: 21:    Enable_RBX(&rb2);
  1057     054E  3047               	movlw	(low (_rb2| 0))& (0+255)
  1058     054F  120A  118A  2518  120A  118A  	fcall	_Enable_RBX
  1059     0554                     l489:	
  1060                           ;Temperature_Controlled_Fan_System.c: 22: while(1){
  1061                           
  1062     0554                     l490:	
  1063                           ;Temperature_Controlled_Fan_System.c: 25: }
  1064                           
  1065     0554  2D54               	goto	l489
  1066     0555  120A  118A  2810   	ljmp	start
  1067     0558                     __end_of_main:
  1068                           
  1069                           	psect	text1
  1070     0589                     __ptext1:	
  1071 ;; *************** function _apllication_initilaize *****************
  1072 ;; Defined at:
  1073 ;;		line 28 in file "Temperature_Controlled_Fan_System.c"
  1074 ;; Parameters:    Size  Location     Type
  1075 ;;		None
  1076 ;; Auto vars:     Size  Location     Type
  1077 ;;		None
  1078 ;; Return value:  Size  Location     Type
  1079 ;;                  1    wreg      void 
  1080 ;; Registers used:
  1081 ;;		wreg, fsr0l, fsr0h, status,2, status,0, btemp+1, pclath, cstack
  1082 ;; Tracked objects:
  1083 ;;		On entry : 0/0
  1084 ;;		On exit  : 0/0
  1085 ;;		Unchanged: 0/0
  1086 ;; Data sizes:     COMMON   BANK0   BANK1   BANK3   BANK2
  1087 ;;      Params:         0       0       0       0       0
  1088 ;;      Locals:         0       0       0       0       0
  1089 ;;      Temps:          0       0       0       0       0
  1090 ;;      Totals:         0       0       0       0       0
  1091 ;;Total ram usage:        0 bytes
  1092 ;; Hardware stack levels used: 1
  1093 ;; Hardware stack levels required when called: 7
  1094 ;; This function calls:
  1095 ;;		_ecu_initialzie
  1096 ;; This function is called by:
  1097 ;;		_main
  1098 ;; This function uses a non-reentrant model
  1099 ;;
  1100                           
  1101     0589                     _apllication_initilaize:	
  1102                           ;psect for function _apllication_initilaize
  1103                           
  1104     0589                     l2090:	
  1105                           ;incstack = 0
  1106                           ; Regs used in _apllication_initilaize: [wreg-fsr0h+status,2+status,0+btemp+1+pclath+cst
      +                          ack]
  1107                           
  1108                           
  1109                           ;Temperature_Controlled_Fan_System.c: 29:     ecu_initialzie();
  1110     0589  120A  118A  2558  120A  118A  	fcall	_ecu_initialzie
  1111     058E                     l495:
  1112     058E  0008               	return
  1113     058F                     __end_of_apllication_initilaize:
  1114                           
  1115                           	psect	text2
  1116     0558                     __ptext2:	
  1117 ;; *************** function _ecu_initialzie *****************
  1118 ;; Defined at:
  1119 ;;		line 29 in file "ECU_LAYER/ECU_LAYER.c"
  1120 ;; Parameters:    Size  Location     Type
  1121 ;;		None
  1122 ;; Auto vars:     Size  Location     Type
  1123 ;;		None
  1124 ;; Return value:  Size  Location     Type
  1125 ;;                  1    wreg      void 
  1126 ;; Registers used:
  1127 ;;		wreg, fsr0l, fsr0h, status,2, status,0, btemp+1, pclath, cstack
  1128 ;; Tracked objects:
  1129 ;;		On entry : 0/0
  1130 ;;		On exit  : 0/0
  1131 ;;		Unchanged: 0/0
  1132 ;; Data sizes:     COMMON   BANK0   BANK1   BANK3   BANK2
  1133 ;;      Params:         0       0       0       0       0
  1134 ;;      Locals:         0       0       0       0       0
  1135 ;;      Temps:          0       0       0       0       0
  1136 ;;      Totals:         0       0       0       0       0
  1137 ;;Total ram usage:        0 bytes
  1138 ;; Hardware stack levels used: 1
  1139 ;; Hardware stack levels required when called: 6
  1140 ;; This function calls:
  1141 ;;		_gpio_pin_initialize
  1142 ;; This function is called by:
  1143 ;;		_apllication_initilaize
  1144 ;; This function uses a non-reentrant model
  1145 ;;
  1146                           
  1147     0558                     _ecu_initialzie:	
  1148                           ;psect for function _ecu_initialzie
  1149                           
  1150     0558                     l1962:	
  1151                           ;incstack = 0
  1152                           ; Regs used in _ecu_initialzie: [wreg-fsr0h+status,2+status,0+btemp+1+pclath+cstack]
  1153                           
  1154                           
  1155                           ;ECU_LAYER/ECU_LAYER.c: 30:     gpio_pin_initialize(&pin1);
  1156     0558  304B               	movlw	(low (_pin1| 0))& (0+255)
  1157     0559  120A  118A  238A  120A  118A  	fcall	_gpio_pin_initialize
  1158                           
  1159                           ;ECU_LAYER/ECU_LAYER.c: 33:     gpio_pin_initialize(&pin2);
  1160     055E  304A               	movlw	(low (_pin2| 0))& (0+255)
  1161     055F  120A  118A  238A  120A  118A  	fcall	_gpio_pin_initialize
  1162     0564                     l140:
  1163     0564  0008               	return
  1164     0565                     __end_of_ecu_initialzie:
  1165                           
  1166                           	psect	text3
  1167     038A                     __ptext3:	
  1168 ;; *************** function _gpio_pin_initialize *****************
  1169 ;; Defined at:
  1170 ;;		line 103 in file "MCAL_LAYER/GPIO/mcal_gpio.c"
  1171 ;; Parameters:    Size  Location     Type
  1172 ;;  pin             1    wreg     PTR const struct .
  1173 ;;		 -> pin2(1), pin1(1), 
  1174 ;; Auto vars:     Size  Location     Type
  1175 ;;  pin             1   11[BANK0 ] PTR const struct .
  1176 ;;		 -> pin2(1), pin1(1), 
  1177 ;;  ret             1   10[BANK0 ] unsigned char 
  1178 ;; Return value:  Size  Location     Type
  1179 ;;                  1    wreg      unsigned char 
  1180 ;; Registers used:
  1181 ;;		wreg, fsr0l, fsr0h, status,2, status,0, btemp+1, pclath, cstack
  1182 ;; Tracked objects:
  1183 ;;		On entry : 0/0
  1184 ;;		On exit  : 0/0
  1185 ;;		Unchanged: 0/0
  1186 ;; Data sizes:     COMMON   BANK0   BANK1   BANK3   BANK2
  1187 ;;      Params:         0       0       0       0       0
  1188 ;;      Locals:         0       2       0       0       0
  1189 ;;      Temps:          0       2       0       0       0
  1190 ;;      Totals:         0       4       0       0       0
  1191 ;;Total ram usage:        4 bytes
  1192 ;; Hardware stack levels used: 1
  1193 ;; Hardware stack levels required when called: 5
  1194 ;; This function calls:
  1195 ;;		_gpio_pin_direction_initialize
  1196 ;;		_gpio_pin_write_logic
  1197 ;; This function is called by:
  1198 ;;		_ecu_initialzie
  1199 ;;		_lcd_4bits_initialize
  1200 ;;		_motor_initialize
  1201 ;; This function uses a non-reentrant model
  1202 ;;
  1203                           
  1204     038A                     _gpio_pin_initialize:	
  1205                           ;psect for function _gpio_pin_initialize
  1206                           
  1207                           
  1208                           ;incstack = 0
  1209                           ; Regs used in _gpio_pin_initialize: [wreg-fsr0h+status,2+status,0+btemp+1+pclath+cstack
      +                          ]
  1210                           ;gpio_pin_initialize@pin stored from wreg
  1211     038A  1283               	bcf	3,5	;RP0=0, select bank0
  1212     038B  1303               	bcf	3,6	;RP1=0, select bank0
  1213     038C  00D7               	movwf	gpio_pin_initialize@pin
  1214     038D                     l1864:
  1215                           
  1216                           ;MCAL_LAYER/GPIO/mcal_gpio.c: 104:     uint8 ret = 0x00;
  1217     038D  01D6               	clrf	gpio_pin_initialize@ret
  1218     038E                     l1866:
  1219                           
  1220                           ;MCAL_LAYER/GPIO/mcal_gpio.c: 105:     if (pin == ((void*)0)) {
  1221     038E  0857               	movf	gpio_pin_initialize@pin,w
  1222     038F  1D03               	btfss	3,2
  1223     0390  2B92               	goto	u1811
  1224     0391  2B93               	goto	u1810
  1225     0392                     u1811:
  1226     0392  2B96               	goto	l1870
  1227     0393                     u1810:
  1228     0393                     l1868:
  1229                           
  1230                           ;MCAL_LAYER/GPIO/mcal_gpio.c: 106:         ret = 0x01;
  1231     0393  01D6               	clrf	gpio_pin_initialize@ret
  1232     0394  0AD6               	incf	gpio_pin_initialize@ret,f
  1233                           
  1234                           ;MCAL_LAYER/GPIO/mcal_gpio.c: 107:     } else {
  1235     0395  2C1F               	goto	l1892
  1236     0396                     l1870:
  1237                           
  1238                           ;MCAL_LAYER/GPIO/mcal_gpio.c: 108:         if ((pin->port == PORTA_INDEX && pin->pin < 6
      +                          ) || (pin->port == PORTB_INDEX && pin->pin < 8) || (pin->port == PORTC_INDEX && pin->pin
      +                           < 8) ||
  1239     0396  0857               	movf	gpio_pin_initialize@pin,w
  1240     0397  0084               	movwf	4
  1241     0398  1383               	bcf	3,7	;select IRP bank0
  1242     0399  0800               	movf	0,w
  1243     039A  3907               	andlw	7
  1244     039B  3A00               	xorlw	0
  1245     039C  1D03               	skipz
  1246     039D  2B9F               	goto	u1821
  1247     039E  2BA0               	goto	u1820
  1248     039F                     u1821:
  1249     039F  2BAE               	goto	l1874
  1250     03A0                     u1820:
  1251     03A0                     l1872:
  1252     03A0  0857               	movf	gpio_pin_initialize@pin,w
  1253     03A1  0084               	movwf	4
  1254     03A2  0C00               	rrf	0,w
  1255     03A3  00D4               	movwf	??_gpio_pin_initialize
  1256     03A4  0CD4               	rrf	??_gpio_pin_initialize,f
  1257     03A5  0C54               	rrf	??_gpio_pin_initialize,w
  1258     03A6  3907               	andlw	7
  1259     03A7  00D5               	movwf	??_gpio_pin_initialize+1
  1260     03A8  3006               	movlw	6
  1261     03A9  0255               	subwf	??_gpio_pin_initialize+1,w
  1262     03AA  1C03               	skipc
  1263     03AB  2BAD               	goto	u1831
  1264     03AC  2BAE               	goto	u1830
  1265     03AD                     u1831:
  1266     03AD  2C0A               	goto	l1890
  1267     03AE                     u1830:
  1268     03AE                     l1874:
  1269     03AE  0857               	movf	gpio_pin_initialize@pin,w
  1270     03AF  0084               	movwf	4
  1271     03B0  0800               	movf	0,w
  1272     03B1  3907               	andlw	7
  1273     03B2  3A01               	xorlw	1
  1274     03B3  1D03               	skipz
  1275     03B4  2BB6               	goto	u1841
  1276     03B5  2BB7               	goto	u1840
  1277     03B6                     u1841:
  1278     03B6  2BC5               	goto	l1878
  1279     03B7                     u1840:
  1280     03B7                     l1876:
  1281     03B7  0857               	movf	gpio_pin_initialize@pin,w
  1282     03B8  0084               	movwf	4
  1283     03B9  0C00               	rrf	0,w
  1284     03BA  00D4               	movwf	??_gpio_pin_initialize
  1285     03BB  0CD4               	rrf	??_gpio_pin_initialize,f
  1286     03BC  0C54               	rrf	??_gpio_pin_initialize,w
  1287     03BD  3907               	andlw	7
  1288     03BE  00D5               	movwf	??_gpio_pin_initialize+1
  1289     03BF  3008               	movlw	8
  1290     03C0  0255               	subwf	??_gpio_pin_initialize+1,w
  1291     03C1  1C03               	skipc
  1292     03C2  2BC4               	goto	u1851
  1293     03C3  2BC5               	goto	u1850
  1294     03C4                     u1851:
  1295     03C4  2C0A               	goto	l1890
  1296     03C5                     u1850:
  1297     03C5                     l1878:
  1298     03C5  0857               	movf	gpio_pin_initialize@pin,w
  1299     03C6  0084               	movwf	4
  1300     03C7  0800               	movf	0,w
  1301     03C8  3907               	andlw	7
  1302     03C9  3A02               	xorlw	2
  1303     03CA  1D03               	skipz
  1304     03CB  2BCD               	goto	u1861
  1305     03CC  2BCE               	goto	u1860
  1306     03CD                     u1861:
  1307     03CD  2BDC               	goto	l1882
  1308     03CE                     u1860:
  1309     03CE                     l1880:
  1310     03CE  0857               	movf	gpio_pin_initialize@pin,w
  1311     03CF  0084               	movwf	4
  1312     03D0  0C00               	rrf	0,w
  1313     03D1  00D4               	movwf	??_gpio_pin_initialize
  1314     03D2  0CD4               	rrf	??_gpio_pin_initialize,f
  1315     03D3  0C54               	rrf	??_gpio_pin_initialize,w
  1316     03D4  3907               	andlw	7
  1317     03D5  00D5               	movwf	??_gpio_pin_initialize+1
  1318     03D6  3008               	movlw	8
  1319     03D7  0255               	subwf	??_gpio_pin_initialize+1,w
  1320     03D8  1C03               	skipc
  1321     03D9  2BDB               	goto	u1871
  1322     03DA  2BDC               	goto	u1870
  1323     03DB                     u1871:
  1324     03DB  2C0A               	goto	l1890
  1325     03DC                     u1870:
  1326     03DC                     l1882:
  1327     03DC  0857               	movf	gpio_pin_initialize@pin,w
  1328     03DD  0084               	movwf	4
  1329     03DE  0800               	movf	0,w
  1330     03DF  3907               	andlw	7
  1331     03E0  3A03               	xorlw	3
  1332     03E1  1D03               	skipz
  1333     03E2  2BE4               	goto	u1881
  1334     03E3  2BE5               	goto	u1880
  1335     03E4                     u1881:
  1336     03E4  2BF3               	goto	l1886
  1337     03E5                     u1880:
  1338     03E5                     l1884:
  1339     03E5  0857               	movf	gpio_pin_initialize@pin,w
  1340     03E6  0084               	movwf	4
  1341     03E7  0C00               	rrf	0,w
  1342     03E8  00D4               	movwf	??_gpio_pin_initialize
  1343     03E9  0CD4               	rrf	??_gpio_pin_initialize,f
  1344     03EA  0C54               	rrf	??_gpio_pin_initialize,w
  1345     03EB  3907               	andlw	7
  1346     03EC  00D5               	movwf	??_gpio_pin_initialize+1
  1347     03ED  3008               	movlw	8
  1348     03EE  0255               	subwf	??_gpio_pin_initialize+1,w
  1349     03EF  1C03               	skipc
  1350     03F0  2BF2               	goto	u1891
  1351     03F1  2BF3               	goto	u1890
  1352     03F2                     u1891:
  1353     03F2  2C0A               	goto	l1890
  1354     03F3                     u1890:
  1355     03F3                     l1886:
  1356     03F3  0857               	movf	gpio_pin_initialize@pin,w
  1357     03F4  0084               	movwf	4
  1358     03F5  0800               	movf	0,w
  1359     03F6  3907               	andlw	7
  1360     03F7  3A04               	xorlw	4
  1361     03F8  1D03               	skipz
  1362     03F9  2BFB               	goto	u1901
  1363     03FA  2BFC               	goto	u1900
  1364     03FB                     u1901:
  1365     03FB  2B93               	goto	l1868
  1366     03FC                     u1900:
  1367     03FC                     l1888:
  1368     03FC  0857               	movf	gpio_pin_initialize@pin,w
  1369     03FD  0084               	movwf	4
  1370     03FE  0C00               	rrf	0,w
  1371     03FF  00D4               	movwf	??_gpio_pin_initialize
  1372     0400  0CD4               	rrf	??_gpio_pin_initialize,f
  1373     0401  0C54               	rrf	??_gpio_pin_initialize,w
  1374     0402  3907               	andlw	7
  1375     0403  00D5               	movwf	??_gpio_pin_initialize+1
  1376     0404  3003               	movlw	3
  1377     0405  0255               	subwf	??_gpio_pin_initialize+1,w
  1378     0406  1803               	skipnc
  1379     0407  2C09               	goto	u1911
  1380     0408  2C0A               	goto	u1910
  1381     0409                     u1911:
  1382     0409  2B93               	goto	l1868
  1383     040A                     u1910:
  1384     040A                     l1890:
  1385                           
  1386                           ;MCAL_LAYER/GPIO/mcal_gpio.c: 109:                 (pin->port == PORTD_INDEX && pin->pin
      +                           < 8) || (pin->port == PORTE_INDEX && pin->pin < 3)) {;MCAL_LAYER/GPIO/mcal_gpio.c: 110:
      +                                       gpio_pin_direction_initialize(pin);
  1387     040A  0857               	movf	gpio_pin_initialize@pin,w
  1388     040B  120A  118A  220A  120A  118A  	fcall	_gpio_pin_direction_initialize
  1389                           
  1390                           ;MCAL_LAYER/GPIO/mcal_gpio.c: 111:             gpio_pin_write_logic(pin, pin->logic);
  1391     0410  1283               	bcf	3,5	;RP0=0, select bank0
  1392     0411  1303               	bcf	3,6	;RP1=0, select bank0
  1393     0412  0857               	movf	gpio_pin_initialize@pin,w
  1394     0413  0084               	movwf	4
  1395     0414  3000               	movlw	0
  1396     0415  1383               	bcf	3,7	;select IRP bank0
  1397     0416  1B00               	btfsc	0,6
  1398     0417  3001               	movlw	1
  1399     0418  00CC               	movwf	gpio_pin_write_logic@logic
  1400     0419  0857               	movf	gpio_pin_initialize@pin,w
  1401     041A  120A  118A  2128  120A  118A  	fcall	_gpio_pin_write_logic
  1402     041F                     l1892:	
  1403                           ;MCAL_LAYER/GPIO/mcal_gpio.c: 112:         } else {
  1404                           
  1405                           
  1406                           ;MCAL_LAYER/GPIO/mcal_gpio.c: 116:     return ret;
  1407     041F  1283               	bcf	3,5	;RP0=0, select bank0
  1408     0420  1303               	bcf	3,6	;RP1=0, select bank0
  1409     0421  0856               	movf	gpio_pin_initialize@ret,w
  1410     0422                     l278:
  1411     0422  0008               	return
  1412     0423                     __end_of_gpio_pin_initialize:
  1413                           
  1414                           	psect	text4
  1415     0128                     __ptext4:	
  1416 ;; *************** function _gpio_pin_write_logic *****************
  1417 ;; Defined at:
  1418 ;;		line 50 in file "MCAL_LAYER/GPIO/mcal_gpio.c"
  1419 ;; Parameters:    Size  Location     Type
  1420 ;;  pin             1    wreg     PTR const struct .
  1421 ;;		 -> pin2(1), pin1(1), 
  1422 ;;  logic           1    0[BANK0 ] enum E1519
  1423 ;; Auto vars:     Size  Location     Type
  1424 ;;  pin             1    7[BANK0 ] PTR const struct .
  1425 ;;		 -> pin2(1), pin1(1), 
  1426 ;;  ret             1    6[BANK0 ] unsigned char 
  1427 ;; Return value:  Size  Location     Type
  1428 ;;                  1    wreg      unsigned char 
  1429 ;; Registers used:
  1430 ;;		wreg, fsr0l, fsr0h, status,2, status,0, btemp+1
  1431 ;; Tracked objects:
  1432 ;;		On entry : 0/0
  1433 ;;		On exit  : 0/0
  1434 ;;		Unchanged: 0/0
  1435 ;; Data sizes:     COMMON   BANK0   BANK1   BANK3   BANK2
  1436 ;;      Params:         0       1       0       0       0
  1437 ;;      Locals:         0       2       0       0       0
  1438 ;;      Temps:          0       5       0       0       0
  1439 ;;      Totals:         0       8       0       0       0
  1440 ;;Total ram usage:        8 bytes
  1441 ;; Hardware stack levels used: 1
  1442 ;; Hardware stack levels required when called: 4
  1443 ;; This function calls:
  1444 ;;		Nothing
  1445 ;; This function is called by:
  1446 ;;		_gpio_pin_initialize
  1447 ;;		_lcd_4bits_send_command
  1448 ;;		_lcd_4bits_send_char
  1449 ;;		_send_4bits
  1450 ;;		_send_enable_signal
  1451 ;;		_motor_turn_right
  1452 ;;		_motor_turn_left
  1453 ;;		_motor_turn_off
  1454 ;; This function uses a non-reentrant model
  1455 ;;
  1456                           
  1457     0128                     _gpio_pin_write_logic:	
  1458                           ;psect for function _gpio_pin_write_logic
  1459                           
  1460                           
  1461                           ;incstack = 0
  1462                           ; Regs used in _gpio_pin_write_logic: [wreg-fsr0h+status,2+status,0+btemp+1]
  1463                           ;gpio_pin_write_logic@pin stored from wreg
  1464     0128  1283               	bcf	3,5	;RP0=0, select bank0
  1465     0129  1303               	bcf	3,6	;RP1=0, select bank0
  1466     012A  00D3               	movwf	gpio_pin_write_logic@pin
  1467     012B                     l1784:
  1468                           
  1469                           ;MCAL_LAYER/GPIO/mcal_gpio.c: 51:     uint8 ret = 0x00;
  1470     012B  01D2               	clrf	gpio_pin_write_logic@ret
  1471     012C                     l1786:
  1472                           
  1473                           ;MCAL_LAYER/GPIO/mcal_gpio.c: 52:     if (pin == ((void*)0)) {
  1474     012C  0853               	movf	gpio_pin_write_logic@pin,w
  1475     012D  1D03               	btfss	3,2
  1476     012E  2930               	goto	u1551
  1477     012F  2931               	goto	u1550
  1478     0130                     u1551:
  1479     0130  2934               	goto	l1790
  1480     0131                     u1550:
  1481     0131                     l1788:
  1482                           
  1483                           ;MCAL_LAYER/GPIO/mcal_gpio.c: 53:         ret = 0x01;
  1484     0131  01D2               	clrf	gpio_pin_write_logic@ret
  1485     0132  0AD2               	incf	gpio_pin_write_logic@ret,f
  1486                           
  1487                           ;MCAL_LAYER/GPIO/mcal_gpio.c: 54:     } else {
  1488     0133  2A08               	goto	l1818
  1489     0134                     l1790:
  1490                           
  1491                           ;MCAL_LAYER/GPIO/mcal_gpio.c: 55:         if ((pin->port == PORTA_INDEX && pin->pin < 6)
      +                           || (pin->port == PORTB_INDEX && pin->pin < 8) || (pin->port == PORTC_INDEX && pin->pin 
      +                          < 8) ||
  1492     0134  0853               	movf	gpio_pin_write_logic@pin,w
  1493     0135  0084               	movwf	4
  1494     0136  1383               	bcf	3,7	;select IRP bank0
  1495     0137  0800               	movf	0,w
  1496     0138  3907               	andlw	7
  1497     0139  3A00               	xorlw	0
  1498     013A  1D03               	skipz
  1499     013B  293D               	goto	u1561
  1500     013C  293E               	goto	u1560
  1501     013D                     u1561:
  1502     013D  294C               	goto	l1794
  1503     013E                     u1560:
  1504     013E                     l1792:
  1505     013E  0853               	movf	gpio_pin_write_logic@pin,w
  1506     013F  0084               	movwf	4
  1507     0140  0C00               	rrf	0,w
  1508     0141  00CD               	movwf	??_gpio_pin_write_logic
  1509     0142  0CCD               	rrf	??_gpio_pin_write_logic,f
  1510     0143  0C4D               	rrf	??_gpio_pin_write_logic,w
  1511     0144  3907               	andlw	7
  1512     0145  00CE               	movwf	??_gpio_pin_write_logic+1
  1513     0146  3006               	movlw	6
  1514     0147  024E               	subwf	??_gpio_pin_write_logic+1,w
  1515     0148  1C03               	skipc
  1516     0149  294B               	goto	u1571
  1517     014A  294C               	goto	u1570
  1518     014B                     u1571:
  1519     014B  29F8               	goto	l1816
  1520     014C                     u1570:
  1521     014C                     l1794:
  1522     014C  0853               	movf	gpio_pin_write_logic@pin,w
  1523     014D  0084               	movwf	4
  1524     014E  0800               	movf	0,w
  1525     014F  3907               	andlw	7
  1526     0150  3A01               	xorlw	1
  1527     0151  1D03               	skipz
  1528     0152  2954               	goto	u1581
  1529     0153  2955               	goto	u1580
  1530     0154                     u1581:
  1531     0154  2963               	goto	l1798
  1532     0155                     u1580:
  1533     0155                     l1796:
  1534     0155  0853               	movf	gpio_pin_write_logic@pin,w
  1535     0156  0084               	movwf	4
  1536     0157  0C00               	rrf	0,w
  1537     0158  00CD               	movwf	??_gpio_pin_write_logic
  1538     0159  0CCD               	rrf	??_gpio_pin_write_logic,f
  1539     015A  0C4D               	rrf	??_gpio_pin_write_logic,w
  1540     015B  3907               	andlw	7
  1541     015C  00CE               	movwf	??_gpio_pin_write_logic+1
  1542     015D  3008               	movlw	8
  1543     015E  024E               	subwf	??_gpio_pin_write_logic+1,w
  1544     015F  1C03               	skipc
  1545     0160  2962               	goto	u1591
  1546     0161  2963               	goto	u1590
  1547     0162                     u1591:
  1548     0162  29F8               	goto	l1816
  1549     0163                     u1590:
  1550     0163                     l1798:
  1551     0163  0853               	movf	gpio_pin_write_logic@pin,w
  1552     0164  0084               	movwf	4
  1553     0165  0800               	movf	0,w
  1554     0166  3907               	andlw	7
  1555     0167  3A02               	xorlw	2
  1556     0168  1D03               	skipz
  1557     0169  296B               	goto	u1601
  1558     016A  296C               	goto	u1600
  1559     016B                     u1601:
  1560     016B  297A               	goto	l1802
  1561     016C                     u1600:
  1562     016C                     l1800:
  1563     016C  0853               	movf	gpio_pin_write_logic@pin,w
  1564     016D  0084               	movwf	4
  1565     016E  0C00               	rrf	0,w
  1566     016F  00CD               	movwf	??_gpio_pin_write_logic
  1567     0170  0CCD               	rrf	??_gpio_pin_write_logic,f
  1568     0171  0C4D               	rrf	??_gpio_pin_write_logic,w
  1569     0172  3907               	andlw	7
  1570     0173  00CE               	movwf	??_gpio_pin_write_logic+1
  1571     0174  3008               	movlw	8
  1572     0175  024E               	subwf	??_gpio_pin_write_logic+1,w
  1573     0176  1C03               	skipc
  1574     0177  2979               	goto	u1611
  1575     0178  297A               	goto	u1610
  1576     0179                     u1611:
  1577     0179  29F8               	goto	l1816
  1578     017A                     u1610:
  1579     017A                     l1802:
  1580     017A  0853               	movf	gpio_pin_write_logic@pin,w
  1581     017B  0084               	movwf	4
  1582     017C  0800               	movf	0,w
  1583     017D  3907               	andlw	7
  1584     017E  3A03               	xorlw	3
  1585     017F  1D03               	skipz
  1586     0180  2982               	goto	u1621
  1587     0181  2983               	goto	u1620
  1588     0182                     u1621:
  1589     0182  2991               	goto	l1806
  1590     0183                     u1620:
  1591     0183                     l1804:
  1592     0183  0853               	movf	gpio_pin_write_logic@pin,w
  1593     0184  0084               	movwf	4
  1594     0185  0C00               	rrf	0,w
  1595     0186  00CD               	movwf	??_gpio_pin_write_logic
  1596     0187  0CCD               	rrf	??_gpio_pin_write_logic,f
  1597     0188  0C4D               	rrf	??_gpio_pin_write_logic,w
  1598     0189  3907               	andlw	7
  1599     018A  00CE               	movwf	??_gpio_pin_write_logic+1
  1600     018B  3008               	movlw	8
  1601     018C  024E               	subwf	??_gpio_pin_write_logic+1,w
  1602     018D  1C03               	skipc
  1603     018E  2990               	goto	u1631
  1604     018F  2991               	goto	u1630
  1605     0190                     u1631:
  1606     0190  29F8               	goto	l1816
  1607     0191                     u1630:
  1608     0191                     l1806:
  1609     0191  0853               	movf	gpio_pin_write_logic@pin,w
  1610     0192  0084               	movwf	4
  1611     0193  0800               	movf	0,w
  1612     0194  3907               	andlw	7
  1613     0195  3A04               	xorlw	4
  1614     0196  1D03               	skipz
  1615     0197  2999               	goto	u1641
  1616     0198  299A               	goto	u1640
  1617     0199                     u1641:
  1618     0199  2931               	goto	l1788
  1619     019A                     u1640:
  1620     019A                     l1808:
  1621     019A  0853               	movf	gpio_pin_write_logic@pin,w
  1622     019B  0084               	movwf	4
  1623     019C  0C00               	rrf	0,w
  1624     019D  00CD               	movwf	??_gpio_pin_write_logic
  1625     019E  0CCD               	rrf	??_gpio_pin_write_logic,f
  1626     019F  0C4D               	rrf	??_gpio_pin_write_logic,w
  1627     01A0  3907               	andlw	7
  1628     01A1  00CE               	movwf	??_gpio_pin_write_logic+1
  1629     01A2  3003               	movlw	3
  1630     01A3  024E               	subwf	??_gpio_pin_write_logic+1,w
  1631     01A4  1803               	skipnc
  1632     01A5  29A7               	goto	u1651
  1633     01A6  29A8               	goto	u1650
  1634     01A7                     u1651:
  1635     01A7  2931               	goto	l1788
  1636     01A8                     u1650:
  1637     01A8  29F8               	goto	l1816
  1638     01A9                     l1810:
  1639                           
  1640                           ;MCAL_LAYER/GPIO/mcal_gpio.c: 60:                     (*port_registers[pin->port] |= (0x
      +                          01 << pin->pin));
  1641     01A9  3001               	movlw	1
  1642     01AA  00CD               	movwf	??_gpio_pin_write_logic
  1643     01AB  0853               	movf	gpio_pin_write_logic@pin,w
  1644     01AC  0084               	movwf	4
  1645     01AD  0C00               	rrf	0,w
  1646     01AE  00CE               	movwf	??_gpio_pin_write_logic+1
  1647     01AF  0CCE               	rrf	??_gpio_pin_write_logic+1,f
  1648     01B0  0C4E               	rrf	??_gpio_pin_write_logic+1,w
  1649     01B1  3907               	andlw	7
  1650     01B2  3E01               	addlw	1
  1651     01B3  29B6               	goto	u1664
  1652     01B4                     u1665:
  1653     01B4  1003               	clrc
  1654     01B5  0DCD               	rlf	??_gpio_pin_write_logic,f
  1655     01B6                     u1664:
  1656     01B6  3EFF               	addlw	-1
  1657     01B7  1D03               	skipz
  1658     01B8  29B4               	goto	u1665
  1659     01B9  084D               	movf	??_gpio_pin_write_logic,w
  1660     01BA  00FF               	movwf	btemp+1
  1661     01BB  0853               	movf	gpio_pin_write_logic@pin,w
  1662     01BC  0084               	movwf	4
  1663     01BD  0800               	movf	0,w
  1664     01BE  3907               	andlw	7
  1665     01BF  00CF               	movwf	??_gpio_pin_write_logic+2
  1666     01C0  074F               	addwf	??_gpio_pin_write_logic+2,w
  1667     01C1  3E20               	addlw	(low (_port_registers| 0))& (0+255)
  1668     01C2  0084               	movwf	4
  1669     01C3  0800               	movf	0,w
  1670     01C4  00D0               	movwf	??_gpio_pin_write_logic+3
  1671     01C5  0A84               	incf	4,f
  1672     01C6  0800               	movf	0,w
  1673     01C7  00D1               	movwf	??_gpio_pin_write_logic+4
  1674     01C8  0850               	movf	??_gpio_pin_write_logic+3,w
  1675     01C9  0084               	movwf	4
  1676     01CA  1783               	bsf	3,7
  1677     01CB  1C51               	btfss	??_gpio_pin_write_logic+4,0
  1678     01CC  1383               	bcf	3,7
  1679     01CD  087F               	movf	btemp+1,w
  1680     01CE  0480               	iorwf	0,f
  1681                           
  1682                           ;MCAL_LAYER/GPIO/mcal_gpio.c: 61:                     break;
  1683     01CF  2A08               	goto	l1818
  1684     01D0                     l1812:
  1685                           
  1686                           ;MCAL_LAYER/GPIO/mcal_gpio.c: 63:                     (*port_registers[pin->port] &= ~(0
      +                          x01 << pin->pin));
  1687     01D0  3001               	movlw	1
  1688     01D1  00CD               	movwf	??_gpio_pin_write_logic
  1689     01D2  0853               	movf	gpio_pin_write_logic@pin,w
  1690     01D3  0084               	movwf	4
  1691     01D4  0C00               	rrf	0,w
  1692     01D5  00CE               	movwf	??_gpio_pin_write_logic+1
  1693     01D6  0CCE               	rrf	??_gpio_pin_write_logic+1,f
  1694     01D7  0C4E               	rrf	??_gpio_pin_write_logic+1,w
  1695     01D8  3907               	andlw	7
  1696     01D9  3E01               	addlw	1
  1697     01DA  29DD               	goto	u1674
  1698     01DB                     u1675:
  1699     01DB  1003               	clrc
  1700     01DC  0DCD               	rlf	??_gpio_pin_write_logic,f
  1701     01DD                     u1674:
  1702     01DD  3EFF               	addlw	-1
  1703     01DE  1D03               	skipz
  1704     01DF  29DB               	goto	u1675
  1705     01E0  084D               	movf	??_gpio_pin_write_logic,w
  1706     01E1  3AFF               	xorlw	255
  1707     01E2  00FF               	movwf	btemp+1
  1708     01E3  0853               	movf	gpio_pin_write_logic@pin,w
  1709     01E4  0084               	movwf	4
  1710     01E5  0800               	movf	0,w
  1711     01E6  3907               	andlw	7
  1712     01E7  00CF               	movwf	??_gpio_pin_write_logic+2
  1713     01E8  074F               	addwf	??_gpio_pin_write_logic+2,w
  1714     01E9  3E20               	addlw	(low (_port_registers| 0))& (0+255)
  1715     01EA  0084               	movwf	4
  1716     01EB  0800               	movf	0,w
  1717     01EC  00D0               	movwf	??_gpio_pin_write_logic+3
  1718     01ED  0A84               	incf	4,f
  1719     01EE  0800               	movf	0,w
  1720     01EF  00D1               	movwf	??_gpio_pin_write_logic+4
  1721     01F0  0850               	movf	??_gpio_pin_write_logic+3,w
  1722     01F1  0084               	movwf	4
  1723     01F2  1783               	bsf	3,7
  1724     01F3  1C51               	btfss	??_gpio_pin_write_logic+4,0
  1725     01F4  1383               	bcf	3,7
  1726     01F5  087F               	movf	btemp+1,w
  1727     01F6  0580               	andwf	0,f
  1728                           
  1729                           ;MCAL_LAYER/GPIO/mcal_gpio.c: 64:                     break;
  1730     01F7  2A08               	goto	l1818
  1731     01F8                     l1816:
  1732     01F8  084C               	movf	gpio_pin_write_logic@logic,w
  1733     01F9  00CD               	movwf	??_gpio_pin_write_logic
  1734     01FA  01CE               	clrf	??_gpio_pin_write_logic+1
  1735                           
  1736                           ; Switch on 2 bytes has been partitioned into a top level switch of size 1, and 1 sub-sw
      +                          itches
  1737                           ; Switch size 1, requested type "simple"
  1738                           ; Number of cases is 1, Range of values is 0 to 0
  1739                           ; switch strategies available:
  1740                           ; Name         Instructions Cycles
  1741                           ; simple_byte            4     3 (average)
  1742                           ; direct_byte           11     8 (fixed)
  1743                           ; jumptable            260     6 (fixed)
  1744                           ;	Chosen strategy is simple_byte
  1745     01FB  084E               	movf	??_gpio_pin_write_logic+1,w
  1746     01FC  3A00               	xorlw	0	; case 0
  1747     01FD  1903               	skipnz
  1748     01FE  2A00               	goto	l2496
  1749     01FF  2A08               	goto	l1818
  1750     0200                     l2496:
  1751                           
  1752                           ; Switch size 1, requested type "simple"
  1753                           ; Number of cases is 2, Range of values is 0 to 1
  1754                           ; switch strategies available:
  1755                           ; Name         Instructions Cycles
  1756                           ; simple_byte            7     4 (average)
  1757                           ; direct_byte           14     8 (fixed)
  1758                           ; jumptable            260     6 (fixed)
  1759                           ;	Chosen strategy is simple_byte
  1760     0200  084D               	movf	??_gpio_pin_write_logic,w
  1761     0201  3A00               	xorlw	0	; case 0
  1762     0202  1903               	skipnz
  1763     0203  29D0               	goto	l1812
  1764     0204  3A01               	xorlw	1	; case 1
  1765     0205  1903               	skipnz
  1766     0206  29A9               	goto	l1810
  1767     0207  2A08               	goto	l1818
  1768     0208                     l1818:
  1769                           
  1770                           ;MCAL_LAYER/GPIO/mcal_gpio.c: 70:     return ret;
  1771     0208  0852               	movf	gpio_pin_write_logic@ret,w
  1772     0209                     l225:
  1773     0209  0008               	return
  1774     020A                     __end_of_gpio_pin_write_logic:
  1775                           
  1776                           	psect	text5
  1777     0518                     __ptext5:	
  1778 ;; *************** function _Enable_RBX *****************
  1779 ;; Defined at:
  1780 ;;		line 157 in file "MCAL_LAYER/INTERRUPT/external_interrupt.c"
  1781 ;; Parameters:    Size  Location     Type
  1782 ;;  rbx             1    wreg     PTR const struct .
  1783 ;;		 -> rb2(3), 
  1784 ;; Auto vars:     Size  Location     Type
  1785 ;;  rbx             1    7[BANK0 ] PTR const struct .
  1786 ;;		 -> rb2(3), 
  1787 ;;  ret             1    0        unsigned char 
  1788 ;; Return value:  Size  Location     Type
  1789 ;;                  1    wreg      unsigned char 
  1790 ;; Registers used:
  1791 ;;		wreg, fsr0l, fsr0h, status,2, status,0, btemp+1, pclath, cstack
  1792 ;; Tracked objects:
  1793 ;;		On entry : 0/0
  1794 ;;		On exit  : 0/0
  1795 ;;		Unchanged: 0/0
  1796 ;; Data sizes:     COMMON   BANK0   BANK1   BANK3   BANK2
  1797 ;;      Params:         0       0       0       0       0
  1798 ;;      Locals:         0       1       0       0       0
  1799 ;;      Temps:          0       0       0       0       0
  1800 ;;      Totals:         0       1       0       0       0
  1801 ;;Total ram usage:        1 bytes
  1802 ;; Hardware stack levels used: 1
  1803 ;; Hardware stack levels required when called: 5
  1804 ;; This function calls:
  1805 ;;		_EXT_Rbx_Fun
  1806 ;;		_gpio_pin_direction_initialize
  1807 ;; This function is called by:
  1808 ;;		_main
  1809 ;; This function uses a non-reentrant model
  1810 ;;
  1811                           
  1812     0518                     _Enable_RBX:	
  1813                           ;psect for function _Enable_RBX
  1814                           
  1815                           
  1816                           ;incstack = 0
  1817                           ; Regs used in _Enable_RBX: [wreg-fsr0h+status,2+status,0+btemp+1+pclath+cstack]
  1818                           ;Enable_RBX@rbx stored from wreg
  1819     0518  1283               	bcf	3,5	;RP0=0, select bank0
  1820     0519  1303               	bcf	3,6	;RP1=0, select bank0
  1821     051A  00D3               	movwf	Enable_RBX@rbx
  1822     051B                     l2076:
  1823     051B                     l2078:
  1824                           
  1825                           ;MCAL_LAYER/INTERRUPT/external_interrupt.c: 159:     if(rbx == ((void*)0)){
  1826     051B  0853               	movf	Enable_RBX@rbx,w
  1827     051C  1D03               	btfss	3,2
  1828     051D  2D1F               	goto	u2281
  1829     051E  2D20               	goto	u2280
  1830     051F                     u2281:
  1831     051F  2D21               	goto	l407
  1832     0520                     u2280:
  1833     0520                     l2080:
  1834                           
  1835                           ;MCAL_LAYER/INTERRUPT/external_interrupt.c: 161:     }
  1836     0520  2D35               	goto	l409
  1837     0521                     l407:	
  1838                           ;MCAL_LAYER/INTERRUPT/external_interrupt.c: 162:     else{
  1839                           
  1840                           
  1841                           ;MCAL_LAYER/INTERRUPT/external_interrupt.c: 163:         (INTCONbits.GIE = 1);
  1842     0521  178B               	bsf	11,7	;volatile
  1843                           
  1844                           ;MCAL_LAYER/INTERRUPT/external_interrupt.c: 164:         (INTCONbits.PEIE = 1);
  1845     0522  170B               	bsf	11,6	;volatile
  1846                           
  1847                           ;MCAL_LAYER/INTERRUPT/external_interrupt.c: 165:         (INTCONbits.RBIE = 0);
  1848     0523  118B               	bcf	11,3	;volatile
  1849                           
  1850                           ;MCAL_LAYER/INTERRUPT/external_interrupt.c: 166:         (INTCONbits.RBIF = 0);
  1851     0524  100B               	bcf	11,0	;volatile
  1852     0525                     l2082:
  1853     0525  0853               	movf	Enable_RBX@rbx,w
  1854     0526  3E02               	addlw	2
  1855     0527  120A  118A  220A  120A  118A  	fcall	_gpio_pin_direction_initialize
  1856     052C                     l2084:
  1857                           
  1858                           ;MCAL_LAYER/INTERRUPT/external_interrupt.c: 168:         EXT_Rbx_Fun(rbx);
  1859     052C  1283               	bcf	3,5	;RP0=0, select bank0
  1860     052D  1303               	bcf	3,6	;RP1=0, select bank0
  1861     052E  0853               	movf	Enable_RBX@rbx,w
  1862     052F  120A  118A  2423  120A  118A  	fcall	_EXT_Rbx_Fun
  1863     0534                     l2086:
  1864                           
  1865                           ;MCAL_LAYER/INTERRUPT/external_interrupt.c: 169:         (INTCONbits.RBIE = 1);
  1866     0534  158B               	bsf	11,3	;volatile
  1867     0535                     l409:
  1868     0535  0008               	return
  1869     0536                     __end_of_Enable_RBX:
  1870                           
  1871                           	psect	text6
  1872     020A                     __ptext6:	
  1873 ;; *************** function _gpio_pin_direction_initialize *****************
  1874 ;; Defined at:
  1875 ;;		line 12 in file "MCAL_LAYER/GPIO/mcal_gpio.c"
  1876 ;; Parameters:    Size  Location     Type
  1877 ;;  pin             1    wreg     PTR const struct .
  1878 ;;		 -> rb2(3), Enable_INTX@pin_obj(1), pin2(1), pin1(1), 
  1879 ;; Auto vars:     Size  Location     Type
  1880 ;;  pin             1    6[BANK0 ] PTR const struct .
  1881 ;;		 -> rb2(3), Enable_INTX@pin_obj(1), pin2(1), pin1(1), 
  1882 ;;  ret             1    5[BANK0 ] unsigned char 
  1883 ;; Return value:  Size  Location     Type
  1884 ;;                  1    wreg      unsigned char 
  1885 ;; Registers used:
  1886 ;;		wreg, fsr0l, fsr0h, status,2, status,0, btemp+1
  1887 ;; Tracked objects:
  1888 ;;		On entry : 0/0
  1889 ;;		On exit  : 0/0
  1890 ;;		Unchanged: 0/0
  1891 ;; Data sizes:     COMMON   BANK0   BANK1   BANK3   BANK2
  1892 ;;      Params:         0       0       0       0       0
  1893 ;;      Locals:         0       2       0       0       0
  1894 ;;      Temps:          0       5       0       0       0
  1895 ;;      Totals:         0       7       0       0       0
  1896 ;;Total ram usage:        7 bytes
  1897 ;; Hardware stack levels used: 1
  1898 ;; Hardware stack levels required when called: 4
  1899 ;; This function calls:
  1900 ;;		Nothing
  1901 ;; This function is called by:
  1902 ;;		_gpio_pin_initialize
  1903 ;;		_Enable_RBX
  1904 ;;		_Enable_INTX
  1905 ;; This function uses a non-reentrant model
  1906 ;;
  1907                           
  1908     020A                     _gpio_pin_direction_initialize:	
  1909                           ;psect for function _gpio_pin_direction_initialize
  1910                           
  1911                           
  1912                           ;incstack = 0
  1913                           ; Regs used in _gpio_pin_direction_initialize: [wreg-fsr0h+status,2+status,0+btemp+1]
  1914                           ;gpio_pin_direction_initialize@pin stored from wreg
  1915     020A  1283               	bcf	3,5	;RP0=0, select bank0
  1916     020B  1303               	bcf	3,6	;RP1=0, select bank0
  1917     020C  00D2               	movwf	gpio_pin_direction_initialize@pin
  1918     020D                     l1826:
  1919                           
  1920                           ;MCAL_LAYER/GPIO/mcal_gpio.c: 13:     uint8 ret = 0x00;
  1921     020D  01D1               	clrf	gpio_pin_direction_initialize@ret
  1922     020E                     l1828:
  1923                           
  1924                           ;MCAL_LAYER/GPIO/mcal_gpio.c: 14:     if (pin == ((void*)0)) {
  1925     020E  0852               	movf	gpio_pin_direction_initialize@pin,w
  1926     020F  1D03               	btfss	3,2
  1927     0210  2A12               	goto	u1681
  1928     0211  2A13               	goto	u1680
  1929     0212                     u1681:
  1930     0212  2A14               	goto	l1832
  1931     0213                     u1680:
  1932     0213                     l1830:
  1933                           
  1934                           ;MCAL_LAYER/GPIO/mcal_gpio.c: 16:     } else {
  1935     0213  2AE7               	goto	l185
  1936     0214                     l1832:
  1937                           
  1938                           ;MCAL_LAYER/GPIO/mcal_gpio.c: 17:         if ((pin->port == PORTA_INDEX && pin->pin < 6)
      +                           || (pin->port == PORTB_INDEX && pin->pin < 8) || (pin->port == PORTC_INDEX && pin->pin 
      +                          < 8) ||
  1939     0214  0852               	movf	gpio_pin_direction_initialize@pin,w
  1940     0215  0084               	movwf	4
  1941     0216  1383               	bcf	3,7	;select IRP bank0
  1942     0217  0800               	movf	0,w
  1943     0218  3907               	andlw	7
  1944     0219  3A00               	xorlw	0
  1945     021A  1D03               	skipz
  1946     021B  2A1D               	goto	u1691
  1947     021C  2A1E               	goto	u1690
  1948     021D                     u1691:
  1949     021D  2A2C               	goto	l1836
  1950     021E                     u1690:
  1951     021E                     l1834:
  1952     021E  0852               	movf	gpio_pin_direction_initialize@pin,w
  1953     021F  0084               	movwf	4
  1954     0220  0C00               	rrf	0,w
  1955     0221  00CC               	movwf	??_gpio_pin_direction_initialize
  1956     0222  0CCC               	rrf	??_gpio_pin_direction_initialize,f
  1957     0223  0C4C               	rrf	??_gpio_pin_direction_initialize,w
  1958     0224  3907               	andlw	7
  1959     0225  00CD               	movwf	??_gpio_pin_direction_initialize+1
  1960     0226  3006               	movlw	6
  1961     0227  024D               	subwf	??_gpio_pin_direction_initialize+1,w
  1962     0228  1C03               	skipc
  1963     0229  2A2B               	goto	u1701
  1964     022A  2A2C               	goto	u1700
  1965     022B                     u1701:
  1966     022B  2AD8               	goto	l1858
  1967     022C                     u1700:
  1968     022C                     l1836:
  1969     022C  0852               	movf	gpio_pin_direction_initialize@pin,w
  1970     022D  0084               	movwf	4
  1971     022E  0800               	movf	0,w
  1972     022F  3907               	andlw	7
  1973     0230  3A01               	xorlw	1
  1974     0231  1D03               	skipz
  1975     0232  2A34               	goto	u1711
  1976     0233  2A35               	goto	u1710
  1977     0234                     u1711:
  1978     0234  2A43               	goto	l1840
  1979     0235                     u1710:
  1980     0235                     l1838:
  1981     0235  0852               	movf	gpio_pin_direction_initialize@pin,w
  1982     0236  0084               	movwf	4
  1983     0237  0C00               	rrf	0,w
  1984     0238  00CC               	movwf	??_gpio_pin_direction_initialize
  1985     0239  0CCC               	rrf	??_gpio_pin_direction_initialize,f
  1986     023A  0C4C               	rrf	??_gpio_pin_direction_initialize,w
  1987     023B  3907               	andlw	7
  1988     023C  00CD               	movwf	??_gpio_pin_direction_initialize+1
  1989     023D  3008               	movlw	8
  1990     023E  024D               	subwf	??_gpio_pin_direction_initialize+1,w
  1991     023F  1C03               	skipc
  1992     0240  2A42               	goto	u1721
  1993     0241  2A43               	goto	u1720
  1994     0242                     u1721:
  1995     0242  2AD8               	goto	l1858
  1996     0243                     u1720:
  1997     0243                     l1840:
  1998     0243  0852               	movf	gpio_pin_direction_initialize@pin,w
  1999     0244  0084               	movwf	4
  2000     0245  0800               	movf	0,w
  2001     0246  3907               	andlw	7
  2002     0247  3A02               	xorlw	2
  2003     0248  1D03               	skipz
  2004     0249  2A4B               	goto	u1731
  2005     024A  2A4C               	goto	u1730
  2006     024B                     u1731:
  2007     024B  2A5A               	goto	l1844
  2008     024C                     u1730:
  2009     024C                     l1842:
  2010     024C  0852               	movf	gpio_pin_direction_initialize@pin,w
  2011     024D  0084               	movwf	4
  2012     024E  0C00               	rrf	0,w
  2013     024F  00CC               	movwf	??_gpio_pin_direction_initialize
  2014     0250  0CCC               	rrf	??_gpio_pin_direction_initialize,f
  2015     0251  0C4C               	rrf	??_gpio_pin_direction_initialize,w
  2016     0252  3907               	andlw	7
  2017     0253  00CD               	movwf	??_gpio_pin_direction_initialize+1
  2018     0254  3008               	movlw	8
  2019     0255  024D               	subwf	??_gpio_pin_direction_initialize+1,w
  2020     0256  1C03               	skipc
  2021     0257  2A59               	goto	u1741
  2022     0258  2A5A               	goto	u1740
  2023     0259                     u1741:
  2024     0259  2AD8               	goto	l1858
  2025     025A                     u1740:
  2026     025A                     l1844:
  2027     025A  0852               	movf	gpio_pin_direction_initialize@pin,w
  2028     025B  0084               	movwf	4
  2029     025C  0800               	movf	0,w
  2030     025D  3907               	andlw	7
  2031     025E  3A03               	xorlw	3
  2032     025F  1D03               	skipz
  2033     0260  2A62               	goto	u1751
  2034     0261  2A63               	goto	u1750
  2035     0262                     u1751:
  2036     0262  2A71               	goto	l1848
  2037     0263                     u1750:
  2038     0263                     l1846:
  2039     0263  0852               	movf	gpio_pin_direction_initialize@pin,w
  2040     0264  0084               	movwf	4
  2041     0265  0C00               	rrf	0,w
  2042     0266  00CC               	movwf	??_gpio_pin_direction_initialize
  2043     0267  0CCC               	rrf	??_gpio_pin_direction_initialize,f
  2044     0268  0C4C               	rrf	??_gpio_pin_direction_initialize,w
  2045     0269  3907               	andlw	7
  2046     026A  00CD               	movwf	??_gpio_pin_direction_initialize+1
  2047     026B  3008               	movlw	8
  2048     026C  024D               	subwf	??_gpio_pin_direction_initialize+1,w
  2049     026D  1C03               	skipc
  2050     026E  2A70               	goto	u1761
  2051     026F  2A71               	goto	u1760
  2052     0270                     u1761:
  2053     0270  2AD8               	goto	l1858
  2054     0271                     u1760:
  2055     0271                     l1848:
  2056     0271  0852               	movf	gpio_pin_direction_initialize@pin,w
  2057     0272  0084               	movwf	4
  2058     0273  0800               	movf	0,w
  2059     0274  3907               	andlw	7
  2060     0275  3A04               	xorlw	4
  2061     0276  1D03               	skipz
  2062     0277  2A79               	goto	u1771
  2063     0278  2A7A               	goto	u1770
  2064     0279                     u1771:
  2065     0279  2AE4               	goto	l169
  2066     027A                     u1770:
  2067     027A                     l1850:
  2068     027A  0852               	movf	gpio_pin_direction_initialize@pin,w
  2069     027B  0084               	movwf	4
  2070     027C  0C00               	rrf	0,w
  2071     027D  00CC               	movwf	??_gpio_pin_direction_initialize
  2072     027E  0CCC               	rrf	??_gpio_pin_direction_initialize,f
  2073     027F  0C4C               	rrf	??_gpio_pin_direction_initialize,w
  2074     0280  3907               	andlw	7
  2075     0281  00CD               	movwf	??_gpio_pin_direction_initialize+1
  2076     0282  3003               	movlw	3
  2077     0283  024D               	subwf	??_gpio_pin_direction_initialize+1,w
  2078     0284  1803               	skipnc
  2079     0285  2A87               	goto	u1781
  2080     0286  2A88               	goto	u1780
  2081     0287                     u1781:
  2082     0287  2AE4               	goto	l169
  2083     0288                     u1780:
  2084     0288  2AD8               	goto	l1858
  2085     0289                     l1852:
  2086                           
  2087                           ;MCAL_LAYER/GPIO/mcal_gpio.c: 21:                     (*tris_registers[pin->port] &= ~(0
      +                          x01 << pin->pin));
  2088     0289  3001               	movlw	1
  2089     028A  00CC               	movwf	??_gpio_pin_direction_initialize
  2090     028B  0852               	movf	gpio_pin_direction_initialize@pin,w
  2091     028C  0084               	movwf	4
  2092     028D  0C00               	rrf	0,w
  2093     028E  00CD               	movwf	??_gpio_pin_direction_initialize+1
  2094     028F  0CCD               	rrf	??_gpio_pin_direction_initialize+1,f
  2095     0290  0C4D               	rrf	??_gpio_pin_direction_initialize+1,w
  2096     0291  3907               	andlw	7
  2097     0292  3E01               	addlw	1
  2098     0293  2A96               	goto	u1794
  2099     0294                     u1795:
  2100     0294  1003               	clrc
  2101     0295  0DCC               	rlf	??_gpio_pin_direction_initialize,f
  2102     0296                     u1794:
  2103     0296  3EFF               	addlw	-1
  2104     0297  1D03               	skipz
  2105     0298  2A94               	goto	u1795
  2106     0299  084C               	movf	??_gpio_pin_direction_initialize,w
  2107     029A  3AFF               	xorlw	255
  2108     029B  00FF               	movwf	btemp+1
  2109     029C  0852               	movf	gpio_pin_direction_initialize@pin,w
  2110     029D  0084               	movwf	4
  2111     029E  0800               	movf	0,w
  2112     029F  3907               	andlw	7
  2113     02A0  00CE               	movwf	??_gpio_pin_direction_initialize+2
  2114     02A1  074E               	addwf	??_gpio_pin_direction_initialize+2,w
  2115     02A2  3E2A               	addlw	(low (_tris_registers| 0))& (0+255)
  2116     02A3  0084               	movwf	4
  2117     02A4  0800               	movf	0,w
  2118     02A5  00CF               	movwf	??_gpio_pin_direction_initialize+3
  2119     02A6  0A84               	incf	4,f
  2120     02A7  0800               	movf	0,w
  2121     02A8  00D0               	movwf	??_gpio_pin_direction_initialize+4
  2122     02A9  084F               	movf	??_gpio_pin_direction_initialize+3,w
  2123     02AA  0084               	movwf	4
  2124     02AB  1783               	bsf	3,7
  2125     02AC  1C50               	btfss	??_gpio_pin_direction_initialize+4,0
  2126     02AD  1383               	bcf	3,7
  2127     02AE  087F               	movf	btemp+1,w
  2128     02AF  0580               	andwf	0,f
  2129                           
  2130                           ;MCAL_LAYER/GPIO/mcal_gpio.c: 22:                     break;
  2131     02B0  2AE6               	goto	l1860
  2132     02B1                     l1854:
  2133                           
  2134                           ;MCAL_LAYER/GPIO/mcal_gpio.c: 24:                     (*tris_registers[pin->port] |= (0x
      +                          01 << pin->pin));
  2135     02B1  3001               	movlw	1
  2136     02B2  00CC               	movwf	??_gpio_pin_direction_initialize
  2137     02B3  0852               	movf	gpio_pin_direction_initialize@pin,w
  2138     02B4  0084               	movwf	4
  2139     02B5  0C00               	rrf	0,w
  2140     02B6  00CD               	movwf	??_gpio_pin_direction_initialize+1
  2141     02B7  0CCD               	rrf	??_gpio_pin_direction_initialize+1,f
  2142     02B8  0C4D               	rrf	??_gpio_pin_direction_initialize+1,w
  2143     02B9  3907               	andlw	7
  2144     02BA  3E01               	addlw	1
  2145     02BB  2ABE               	goto	u1804
  2146     02BC                     u1805:
  2147     02BC  1003               	clrc
  2148     02BD  0DCC               	rlf	??_gpio_pin_direction_initialize,f
  2149     02BE                     u1804:
  2150     02BE  3EFF               	addlw	-1
  2151     02BF  1D03               	skipz
  2152     02C0  2ABC               	goto	u1805
  2153     02C1  084C               	movf	??_gpio_pin_direction_initialize,w
  2154     02C2  00FF               	movwf	btemp+1
  2155     02C3  0852               	movf	gpio_pin_direction_initialize@pin,w
  2156     02C4  0084               	movwf	4
  2157     02C5  0800               	movf	0,w
  2158     02C6  3907               	andlw	7
  2159     02C7  00CE               	movwf	??_gpio_pin_direction_initialize+2
  2160     02C8  074E               	addwf	??_gpio_pin_direction_initialize+2,w
  2161     02C9  3E2A               	addlw	(low (_tris_registers| 0))& (0+255)
  2162     02CA  0084               	movwf	4
  2163     02CB  0800               	movf	0,w
  2164     02CC  00CF               	movwf	??_gpio_pin_direction_initialize+3
  2165     02CD  0A84               	incf	4,f
  2166     02CE  0800               	movf	0,w
  2167     02CF  00D0               	movwf	??_gpio_pin_direction_initialize+4
  2168     02D0  084F               	movf	??_gpio_pin_direction_initialize+3,w
  2169     02D1  0084               	movwf	4
  2170     02D2  1783               	bsf	3,7
  2171     02D3  1C50               	btfss	??_gpio_pin_direction_initialize+4,0
  2172     02D4  1383               	bcf	3,7
  2173     02D5  087F               	movf	btemp+1,w
  2174     02D6  0480               	iorwf	0,f
  2175                           
  2176                           ;MCAL_LAYER/GPIO/mcal_gpio.c: 25:                     break;
  2177     02D7  2AE6               	goto	l1860
  2178     02D8                     l1858:
  2179     02D8  0852               	movf	gpio_pin_direction_initialize@pin,w
  2180     02D9  0084               	movwf	4
  2181     02DA  0D00               	rlf	0,w
  2182     02DB  0D00               	rlf	0,w
  2183     02DC  3901               	andlw	1
  2184                           
  2185                           ; Switch size 1, requested type "simple"
  2186                           ; Number of cases is 2, Range of values is 0 to 1
  2187                           ; switch strategies available:
  2188                           ; Name         Instructions Cycles
  2189                           ; simple_byte            7     4 (average)
  2190                           ; direct_byte           14     8 (fixed)
  2191                           ; jumptable            260     6 (fixed)
  2192                           ;	Chosen strategy is simple_byte
  2193     02DD  3A00               	xorlw	0	; case 0
  2194     02DE  1903               	skipnz
  2195     02DF  2A89               	goto	l1852
  2196     02E0  3A01               	xorlw	1	; case 1
  2197     02E1  1903               	skipnz
  2198     02E2  2AB1               	goto	l1854
  2199     02E3  2AE6               	goto	l1860
  2200     02E4                     l169:
  2201                           
  2202                           ;MCAL_LAYER/GPIO/mcal_gpio.c: 28:             ret = 0x01;
  2203     02E4  01D1               	clrf	gpio_pin_direction_initialize@ret
  2204     02E5  0AD1               	incf	gpio_pin_direction_initialize@ret,f
  2205     02E6                     l1860:
  2206                           
  2207                           ;MCAL_LAYER/GPIO/mcal_gpio.c: 30:         return ret;
  2208     02E6  0851               	movf	gpio_pin_direction_initialize@ret,w
  2209     02E7                     l185:
  2210     02E7  0008               	return
  2211     02E8                     __end_of_gpio_pin_direction_initialize:
  2212                           
  2213                           	psect	text7
  2214     0423                     __ptext7:	
  2215 ;; *************** function _EXT_Rbx_Fun *****************
  2216 ;; Defined at:
  2217 ;;		line 185 in file "MCAL_LAYER/INTERRUPT/external_interrupt.c"
  2218 ;; Parameters:    Size  Location     Type
  2219 ;;  rbx             1    wreg     PTR const struct .
  2220 ;;		 -> rb2(3), 
  2221 ;; Auto vars:     Size  Location     Type
  2222 ;;  rbx             1    1[BANK0 ] PTR const struct .
  2223 ;;		 -> rb2(3), 
  2224 ;; Return value:  Size  Location     Type
  2225 ;;                  1    wreg      unsigned char 
  2226 ;; Registers used:
  2227 ;;		wreg, fsr0l, fsr0h, status,2, status,0
  2228 ;; Tracked objects:
  2229 ;;		On entry : 0/0
  2230 ;;		On exit  : 0/0
  2231 ;;		Unchanged: 0/0
  2232 ;; Data sizes:     COMMON   BANK0   BANK1   BANK3   BANK2
  2233 ;;      Params:         0       0       0       0       0
  2234 ;;      Locals:         0       1       0       0       0
  2235 ;;      Temps:          0       1       0       0       0
  2236 ;;      Totals:         0       2       0       0       0
  2237 ;;Total ram usage:        2 bytes
  2238 ;; Hardware stack levels used: 1
  2239 ;; Hardware stack levels required when called: 4
  2240 ;; This function calls:
  2241 ;;		Nothing
  2242 ;; This function is called by:
  2243 ;;		_Enable_RBX
  2244 ;; This function uses a non-reentrant model
  2245 ;;
  2246                           
  2247     0423                     _EXT_Rbx_Fun:	
  2248                           ;psect for function _EXT_Rbx_Fun
  2249                           
  2250                           
  2251                           ;incstack = 0
  2252                           ; Regs used in _EXT_Rbx_Fun: [wreg-fsr0h+status,2+status,0]
  2253                           ;EXT_Rbx_Fun@rbx stored from wreg
  2254     0423  1283               	bcf	3,5	;RP0=0, select bank0
  2255     0424  1303               	bcf	3,6	;RP1=0, select bank0
  2256     0425  00CD               	movwf	EXT_Rbx_Fun@rbx
  2257     0426                     l1964:
  2258                           
  2259                           ;MCAL_LAYER/INTERRUPT/external_interrupt.c: 186:     switch(rbx->pin.pin){
  2260     0426  2C4B               	goto	l1976
  2261     0427                     l1966:
  2262                           
  2263                           ;MCAL_LAYER/INTERRUPT/external_interrupt.c: 188:             EXT_RB4_HIGH_HANDLER = rbx-
      +                          >EXT_HIGH_INTERRUPT;
  2264     0427  084D               	movf	EXT_Rbx_Fun@rbx,w
  2265     0428  0084               	movwf	4
  2266     0429  0800               	movf	0,w
  2267     042A  00FC               	movwf	_EXT_RB4_HIGH_HANDLER
  2268                           
  2269                           ;MCAL_LAYER/INTERRUPT/external_interrupt.c: 189:             EXT_RB4_LOW_HANDLER = rbx->
      +                          EXT_LOW_INTERRUPT;
  2270     042B  0A4D               	incf	EXT_Rbx_Fun@rbx,w
  2271     042C  0084               	movwf	4
  2272     042D  0800               	movf	0,w
  2273     042E  00DE               	movwf	_EXT_RB4_LOW_HANDLER
  2274                           
  2275                           ;MCAL_LAYER/INTERRUPT/external_interrupt.c: 190:             break;
  2276     042F  2C61               	goto	l423
  2277     0430                     l1968:
  2278                           
  2279                           ;MCAL_LAYER/INTERRUPT/external_interrupt.c: 192:             EXT_RB5_HIGH_HANDLER = rbx-
      +                          >EXT_HIGH_INTERRUPT;
  2280     0430  084D               	movf	EXT_Rbx_Fun@rbx,w
  2281     0431  0084               	movwf	4
  2282     0432  0800               	movf	0,w
  2283     0433  00DD               	movwf	_EXT_RB5_HIGH_HANDLER
  2284                           
  2285                           ;MCAL_LAYER/INTERRUPT/external_interrupt.c: 193:             EXT_RB5_LOW_HANDLER = rbx->
      +                          EXT_LOW_INTERRUPT;
  2286     0434  0A4D               	incf	EXT_Rbx_Fun@rbx,w
  2287     0435  0084               	movwf	4
  2288     0436  0800               	movf	0,w
  2289     0437  00DC               	movwf	_EXT_RB5_LOW_HANDLER
  2290                           
  2291                           ;MCAL_LAYER/INTERRUPT/external_interrupt.c: 194:             break;
  2292     0438  2C61               	goto	l423
  2293     0439                     l1970:
  2294                           
  2295                           ;MCAL_LAYER/INTERRUPT/external_interrupt.c: 196:             EXT_RB6_HIGH_HANDLER = rbx-
      +                          >EXT_HIGH_INTERRUPT;
  2296     0439  084D               	movf	EXT_Rbx_Fun@rbx,w
  2297     043A  0084               	movwf	4
  2298     043B  0800               	movf	0,w
  2299     043C  00DB               	movwf	_EXT_RB6_HIGH_HANDLER
  2300                           
  2301                           ;MCAL_LAYER/INTERRUPT/external_interrupt.c: 197:             EXT_RB6_LOW_HANDLER = rbx->
      +                          EXT_LOW_INTERRUPT;
  2302     043D  0A4D               	incf	EXT_Rbx_Fun@rbx,w
  2303     043E  0084               	movwf	4
  2304     043F  0800               	movf	0,w
  2305     0440  00DA               	movwf	_EXT_RB6_LOW_HANDLER
  2306                           
  2307                           ;MCAL_LAYER/INTERRUPT/external_interrupt.c: 198:             break;
  2308     0441  2C61               	goto	l423
  2309     0442                     l1972:
  2310                           
  2311                           ;MCAL_LAYER/INTERRUPT/external_interrupt.c: 200:             EXT_RB7_HIGH_HANDLER = rbx-
      +                          >EXT_HIGH_INTERRUPT;
  2312     0442  084D               	movf	EXT_Rbx_Fun@rbx,w
  2313     0443  0084               	movwf	4
  2314     0444  0800               	movf	0,w
  2315     0445  00D9               	movwf	_EXT_RB7_HIGH_HANDLER
  2316                           
  2317                           ;MCAL_LAYER/INTERRUPT/external_interrupt.c: 201:             EXT_RB7_LOW_HANDLER = rbx->
      +                          EXT_LOW_INTERRUPT;
  2318     0446  0A4D               	incf	EXT_Rbx_Fun@rbx,w
  2319     0447  0084               	movwf	4
  2320     0448  0800               	movf	0,w
  2321     0449  00D8               	movwf	_EXT_RB7_LOW_HANDLER
  2322                           
  2323                           ;MCAL_LAYER/INTERRUPT/external_interrupt.c: 202:             break;
  2324     044A  2C61               	goto	l423
  2325     044B                     l1976:
  2326     044B  084D               	movf	EXT_Rbx_Fun@rbx,w
  2327     044C  3E02               	addlw	2
  2328     044D  0084               	movwf	4
  2329     044E  1383               	bcf	3,7	;select IRP bank0
  2330     044F  0C00               	rrf	0,w
  2331     0450  00CC               	movwf	??_EXT_Rbx_Fun
  2332     0451  0CCC               	rrf	??_EXT_Rbx_Fun,f
  2333     0452  0C4C               	rrf	??_EXT_Rbx_Fun,w
  2334     0453  3907               	andlw	7
  2335                           
  2336                           ; Switch size 1, requested type "simple"
  2337                           ; Number of cases is 4, Range of values is 4 to 7
  2338                           ; switch strategies available:
  2339                           ; Name         Instructions Cycles
  2340                           ; simple_byte           13     7 (average)
  2341                           ; direct_byte           23    11 (fixed)
  2342                           ; jumptable            263     9 (fixed)
  2343                           ;	Chosen strategy is simple_byte
  2344     0454  3A04               	xorlw	4	; case 4
  2345     0455  1903               	skipnz
  2346     0456  2C27               	goto	l1966
  2347     0457  3A01               	xorlw	1	; case 5
  2348     0458  1903               	skipnz
  2349     0459  2C30               	goto	l1968
  2350     045A  3A03               	xorlw	3	; case 6
  2351     045B  1903               	skipnz
  2352     045C  2C39               	goto	l1970
  2353     045D  3A01               	xorlw	1	; case 7
  2354     045E  1903               	skipnz
  2355     045F  2C42               	goto	l1972
  2356     0460  2C61               	goto	l423
  2357     0461                     l423:
  2358     0461  0008               	return
  2359     0462                     __end_of_EXT_Rbx_Fun:
  2360                           
  2361                           	psect	text8
  2362     003C                     __ptext8:	
  2363 ;; *************** function _InterruptManager *****************
  2364 ;; Defined at:
  2365 ;;		line 11 in file "MCAL_LAYER/INTERRUPT/interrupt_manager.c"
  2366 ;; Parameters:    Size  Location     Type
  2367 ;;		None
  2368 ;; Auto vars:     Size  Location     Type
  2369 ;;		None
  2370 ;; Return value:  Size  Location     Type
  2371 ;;                  1    wreg      void 
  2372 ;; Registers used:
  2373 ;;		wreg, fsr0l, fsr0h, status,2, status,0, btemp+1, pclath, cstack
  2374 ;; Tracked objects:
  2375 ;;		On entry : 0/0
  2376 ;;		On exit  : 0/0
  2377 ;;		Unchanged: 0/0
  2378 ;; Data sizes:     COMMON   BANK0   BANK1   BANK3   BANK2
  2379 ;;      Params:         0       0       0       0       0
  2380 ;;      Locals:         0       0       0       0       0
  2381 ;;      Temps:          4       0       0       0       0
  2382 ;;      Totals:         4       0       0       0       0
  2383 ;;Total ram usage:        4 bytes
  2384 ;; Hardware stack levels used: 1
  2385 ;; Hardware stack levels required when called: 3
  2386 ;; This function calls:
  2387 ;;		_ISR_INTX
  2388 ;;		_ISR_RB4
  2389 ;;		_ISR_RB5
  2390 ;;		_ISR_RB6
  2391 ;;		_ISR_RB7
  2392 ;; This function is called by:
  2393 ;;		Interrupt level 1
  2394 ;; This function uses a non-reentrant model
  2395 ;;
  2396                           
  2397     003C                     _InterruptManager:	
  2398                           ;psect for function _InterruptManager
  2399                           
  2400     003C                     i1l2388:
  2401                           
  2402                           ;MCAL_LAYER/INTERRUPT/interrupt_manager.c: 12:     if((INTCONbits.INTE == 1) && (INTCONb
      +                          its.INTF == 1) ){
  2403     003C  1E0B               	btfss	11,4	;volatile
  2404     003D  283F               	goto	u273_21
  2405     003E  2840               	goto	u273_20
  2406     003F                     u273_21:
  2407     003F  2849               	goto	i1l445
  2408     0040                     u273_20:
  2409     0040                     i1l2390:
  2410     0040  1C8B               	btfss	11,1	;volatile
  2411     0041  2843               	goto	u274_21
  2412     0042  2844               	goto	u274_20
  2413     0043                     u274_21:
  2414     0043  2849               	goto	i1l445
  2415     0044                     u274_20:
  2416     0044                     i1l2392:
  2417                           
  2418                           ;MCAL_LAYER/INTERRUPT/interrupt_manager.c: 13:         ISR_INTX();
  2419     0044  120A  118A  2565  120A  118A  	fcall	_ISR_INTX
  2420     0049                     i1l445:	
  2421                           ;MCAL_LAYER/INTERRUPT/interrupt_manager.c: 14:     }
  2422                           
  2423                           
  2424                           ;MCAL_LAYER/INTERRUPT/interrupt_manager.c: 18:     if((INTCONbits.RBIE == 1) && (INTCONb
      +                          its.RBIF == 1) && (PORTBbits.RB4 == 1) && (counter == 0)){
  2425     0049  1D8B               	btfss	11,3	;volatile
  2426     004A  284C               	goto	u275_21
  2427     004B  284D               	goto	u275_20
  2428     004C                     u275_21:
  2429     004C  2864               	goto	i1l447
  2430     004D                     u275_20:
  2431     004D                     i1l2394:
  2432     004D  1C0B               	btfss	11,0	;volatile
  2433     004E  2850               	goto	u276_21
  2434     004F  2851               	goto	u276_20
  2435     0050                     u276_21:
  2436     0050  2864               	goto	i1l447
  2437     0051                     u276_20:
  2438     0051                     i1l2396:
  2439     0051  1283               	bcf	3,5	;RP0=0, select bank0
  2440     0052  1303               	bcf	3,6	;RP1=0, select bank0
  2441     0053  1E06               	btfss	6,4	;volatile
  2442     0054  2856               	goto	u277_21
  2443     0055  2857               	goto	u277_20
  2444     0056                     u277_21:
  2445     0056  2864               	goto	i1l447
  2446     0057                     u277_20:
  2447     0057                     i1l2398:
  2448     0057  087B               	movf	_counter,w
  2449     0058  1D03               	btfss	3,2
  2450     0059  285B               	goto	u278_21
  2451     005A  285C               	goto	u278_20
  2452     005B                     u278_21:
  2453     005B  2864               	goto	i1l447
  2454     005C                     u278_20:
  2455     005C                     i1l2400:
  2456                           
  2457                           ;MCAL_LAYER/INTERRUPT/interrupt_manager.c: 19:         counter = 1;
  2458     005C  01FB               	clrf	_counter
  2459     005D  0AFB               	incf	_counter,f
  2460     005E                     i1l2402:
  2461                           
  2462                           ;MCAL_LAYER/INTERRUPT/interrupt_manager.c: 20:         ISR_RB4(0);
  2463     005E  3000               	movlw	0
  2464     005F  120A  118A  24F7  120A  118A  	fcall	_ISR_RB4
  2465     0064                     i1l447:	
  2466                           ;MCAL_LAYER/INTERRUPT/interrupt_manager.c: 21:     }
  2467                           
  2468                           
  2469                           ;MCAL_LAYER/INTERRUPT/interrupt_manager.c: 24:     if((INTCONbits.RBIE == 1) && (INTCONb
      +                          its.RBIF == 1) && (PORTBbits.RB4 == 0) && (counter == 1)){
  2470     0064  1D8B               	btfss	11,3	;volatile
  2471     0065  2867               	goto	u279_21
  2472     0066  2868               	goto	u279_20
  2473     0067                     u279_21:
  2474     0067  287E               	goto	i1l449
  2475     0068                     u279_20:
  2476     0068                     i1l2404:
  2477     0068  1C0B               	btfss	11,0	;volatile
  2478     0069  286B               	goto	u280_21
  2479     006A  286C               	goto	u280_20
  2480     006B                     u280_21:
  2481     006B  287E               	goto	i1l449
  2482     006C                     u280_20:
  2483     006C                     i1l2406:
  2484     006C  1283               	bcf	3,5	;RP0=0, select bank0
  2485     006D  1303               	bcf	3,6	;RP1=0, select bank0
  2486     006E  1A06               	btfsc	6,4	;volatile
  2487     006F  2871               	goto	u281_21
  2488     0070  2872               	goto	u281_20
  2489     0071                     u281_21:
  2490     0071  287E               	goto	i1l449
  2491     0072                     u281_20:
  2492     0072                     i1l2408:
  2493     0072  037B               	decf	_counter,w
  2494     0073  1D03               	btfss	3,2
  2495     0074  2876               	goto	u282_21
  2496     0075  2877               	goto	u282_20
  2497     0076                     u282_21:
  2498     0076  287E               	goto	i1l449
  2499     0077                     u282_20:
  2500     0077                     i1l2410:
  2501                           
  2502                           ;MCAL_LAYER/INTERRUPT/interrupt_manager.c: 25:         counter = 0;
  2503     0077  01FB               	clrf	_counter
  2504     0078                     i1l2412:
  2505                           
  2506                           ;MCAL_LAYER/INTERRUPT/interrupt_manager.c: 26:         ISR_RB4(1);
  2507     0078  3001               	movlw	1
  2508     0079  120A  118A  24F7  120A  118A  	fcall	_ISR_RB4
  2509     007E                     i1l449:	
  2510                           ;MCAL_LAYER/INTERRUPT/interrupt_manager.c: 27:     }
  2511                           
  2512                           
  2513                           ;MCAL_LAYER/INTERRUPT/interrupt_manager.c: 30:     if((INTCONbits.RBIE == 1) && (INTCONb
      +                          its.RBIF == 1) && (PORTBbits.RB5 == 1) && (counter == 0)){
  2514     007E  1D8B               	btfss	11,3	;volatile
  2515     007F  2881               	goto	u283_21
  2516     0080  2882               	goto	u283_20
  2517     0081                     u283_21:
  2518     0081  2899               	goto	i1l451
  2519     0082                     u283_20:
  2520     0082                     i1l2414:
  2521     0082  1C0B               	btfss	11,0	;volatile
  2522     0083  2885               	goto	u284_21
  2523     0084  2886               	goto	u284_20
  2524     0085                     u284_21:
  2525     0085  2899               	goto	i1l451
  2526     0086                     u284_20:
  2527     0086                     i1l2416:
  2528     0086  1283               	bcf	3,5	;RP0=0, select bank0
  2529     0087  1303               	bcf	3,6	;RP1=0, select bank0
  2530     0088  1E86               	btfss	6,5	;volatile
  2531     0089  288B               	goto	u285_21
  2532     008A  288C               	goto	u285_20
  2533     008B                     u285_21:
  2534     008B  2899               	goto	i1l451
  2535     008C                     u285_20:
  2536     008C                     i1l2418:
  2537     008C  087B               	movf	_counter,w
  2538     008D  1D03               	btfss	3,2
  2539     008E  2890               	goto	u286_21
  2540     008F  2891               	goto	u286_20
  2541     0090                     u286_21:
  2542     0090  2899               	goto	i1l451
  2543     0091                     u286_20:
  2544     0091                     i1l2420:
  2545                           
  2546                           ;MCAL_LAYER/INTERRUPT/interrupt_manager.c: 31:         counter = 1;
  2547     0091  01FB               	clrf	_counter
  2548     0092  0AFB               	incf	_counter,f
  2549     0093                     i1l2422:
  2550                           
  2551                           ;MCAL_LAYER/INTERRUPT/interrupt_manager.c: 32:         ISR_RB5(0);
  2552     0093  3000               	movlw	0
  2553     0094  120A  118A  24D4  120A  118A  	fcall	_ISR_RB5
  2554     0099                     i1l451:	
  2555                           ;MCAL_LAYER/INTERRUPT/interrupt_manager.c: 33:     }
  2556                           
  2557                           
  2558                           ;MCAL_LAYER/INTERRUPT/interrupt_manager.c: 36:     if((INTCONbits.RBIE == 1) && (INTCONb
      +                          its.RBIF == 1) && (PORTBbits.RB5 == 0) && (counter == 1)){
  2559     0099  1D8B               	btfss	11,3	;volatile
  2560     009A  289C               	goto	u287_21
  2561     009B  289D               	goto	u287_20
  2562     009C                     u287_21:
  2563     009C  28B3               	goto	i1l453
  2564     009D                     u287_20:
  2565     009D                     i1l2424:
  2566     009D  1C0B               	btfss	11,0	;volatile
  2567     009E  28A0               	goto	u288_21
  2568     009F  28A1               	goto	u288_20
  2569     00A0                     u288_21:
  2570     00A0  28B3               	goto	i1l453
  2571     00A1                     u288_20:
  2572     00A1                     i1l2426:
  2573     00A1  1283               	bcf	3,5	;RP0=0, select bank0
  2574     00A2  1303               	bcf	3,6	;RP1=0, select bank0
  2575     00A3  1A86               	btfsc	6,5	;volatile
  2576     00A4  28A6               	goto	u289_21
  2577     00A5  28A7               	goto	u289_20
  2578     00A6                     u289_21:
  2579     00A6  28B3               	goto	i1l453
  2580     00A7                     u289_20:
  2581     00A7                     i1l2428:
  2582     00A7  037B               	decf	_counter,w
  2583     00A8  1D03               	btfss	3,2
  2584     00A9  28AB               	goto	u290_21
  2585     00AA  28AC               	goto	u290_20
  2586     00AB                     u290_21:
  2587     00AB  28B3               	goto	i1l453
  2588     00AC                     u290_20:
  2589     00AC                     i1l2430:
  2590                           
  2591                           ;MCAL_LAYER/INTERRUPT/interrupt_manager.c: 37:         counter = 0;
  2592     00AC  01FB               	clrf	_counter
  2593     00AD                     i1l2432:
  2594                           
  2595                           ;MCAL_LAYER/INTERRUPT/interrupt_manager.c: 38:         ISR_RB5(1);
  2596     00AD  3001               	movlw	1
  2597     00AE  120A  118A  24D4  120A  118A  	fcall	_ISR_RB5
  2598     00B3                     i1l453:	
  2599                           ;MCAL_LAYER/INTERRUPT/interrupt_manager.c: 39:     }
  2600                           
  2601                           
  2602                           ;MCAL_LAYER/INTERRUPT/interrupt_manager.c: 42:     if((INTCONbits.RBIE == 1) && (INTCONb
      +                          its.RBIF == 1) && (PORTBbits.RB6 == 1) && (counter == 0)){
  2603     00B3  1D8B               	btfss	11,3	;volatile
  2604     00B4  28B6               	goto	u291_21
  2605     00B5  28B7               	goto	u291_20
  2606     00B6                     u291_21:
  2607     00B6  28CE               	goto	i1l455
  2608     00B7                     u291_20:
  2609     00B7                     i1l2434:
  2610     00B7  1C0B               	btfss	11,0	;volatile
  2611     00B8  28BA               	goto	u292_21
  2612     00B9  28BB               	goto	u292_20
  2613     00BA                     u292_21:
  2614     00BA  28CE               	goto	i1l455
  2615     00BB                     u292_20:
  2616     00BB                     i1l2436:
  2617     00BB  1283               	bcf	3,5	;RP0=0, select bank0
  2618     00BC  1303               	bcf	3,6	;RP1=0, select bank0
  2619     00BD  1F06               	btfss	6,6	;volatile
  2620     00BE  28C0               	goto	u293_21
  2621     00BF  28C1               	goto	u293_20
  2622     00C0                     u293_21:
  2623     00C0  28CE               	goto	i1l455
  2624     00C1                     u293_20:
  2625     00C1                     i1l2438:
  2626     00C1  087B               	movf	_counter,w
  2627     00C2  1D03               	btfss	3,2
  2628     00C3  28C5               	goto	u294_21
  2629     00C4  28C6               	goto	u294_20
  2630     00C5                     u294_21:
  2631     00C5  28CE               	goto	i1l455
  2632     00C6                     u294_20:
  2633     00C6                     i1l2440:
  2634                           
  2635                           ;MCAL_LAYER/INTERRUPT/interrupt_manager.c: 43:         counter = 1;
  2636     00C6  01FB               	clrf	_counter
  2637     00C7  0AFB               	incf	_counter,f
  2638     00C8                     i1l2442:
  2639                           
  2640                           ;MCAL_LAYER/INTERRUPT/interrupt_manager.c: 44:         ISR_RB6(0);
  2641     00C8  3000               	movlw	0
  2642     00C9  120A  118A  24B1  120A  118A  	fcall	_ISR_RB6
  2643     00CE                     i1l455:	
  2644                           ;MCAL_LAYER/INTERRUPT/interrupt_manager.c: 45:     }
  2645                           
  2646                           
  2647                           ;MCAL_LAYER/INTERRUPT/interrupt_manager.c: 48:     if((INTCONbits.RBIE == 1) && (INTCONb
      +                          its.RBIF == 1) && (PORTBbits.RB6 == 0) && (counter == 1)){
  2648     00CE  1D8B               	btfss	11,3	;volatile
  2649     00CF  28D1               	goto	u295_21
  2650     00D0  28D2               	goto	u295_20
  2651     00D1                     u295_21:
  2652     00D1  28E8               	goto	i1l457
  2653     00D2                     u295_20:
  2654     00D2                     i1l2444:
  2655     00D2  1C0B               	btfss	11,0	;volatile
  2656     00D3  28D5               	goto	u296_21
  2657     00D4  28D6               	goto	u296_20
  2658     00D5                     u296_21:
  2659     00D5  28E8               	goto	i1l457
  2660     00D6                     u296_20:
  2661     00D6                     i1l2446:
  2662     00D6  1283               	bcf	3,5	;RP0=0, select bank0
  2663     00D7  1303               	bcf	3,6	;RP1=0, select bank0
  2664     00D8  1B06               	btfsc	6,6	;volatile
  2665     00D9  28DB               	goto	u297_21
  2666     00DA  28DC               	goto	u297_20
  2667     00DB                     u297_21:
  2668     00DB  28E8               	goto	i1l457
  2669     00DC                     u297_20:
  2670     00DC                     i1l2448:
  2671     00DC  037B               	decf	_counter,w
  2672     00DD  1D03               	btfss	3,2
  2673     00DE  28E0               	goto	u298_21
  2674     00DF  28E1               	goto	u298_20
  2675     00E0                     u298_21:
  2676     00E0  28E8               	goto	i1l457
  2677     00E1                     u298_20:
  2678     00E1                     i1l2450:
  2679                           
  2680                           ;MCAL_LAYER/INTERRUPT/interrupt_manager.c: 49:         counter = 0;
  2681     00E1  01FB               	clrf	_counter
  2682     00E2                     i1l2452:
  2683                           
  2684                           ;MCAL_LAYER/INTERRUPT/interrupt_manager.c: 50:         ISR_RB6(1);
  2685     00E2  3001               	movlw	1
  2686     00E3  120A  118A  24B1  120A  118A  	fcall	_ISR_RB6
  2687     00E8                     i1l457:	
  2688                           ;MCAL_LAYER/INTERRUPT/interrupt_manager.c: 51:     }
  2689                           
  2690                           
  2691                           ;MCAL_LAYER/INTERRUPT/interrupt_manager.c: 54:     if((INTCONbits.RBIE == 1) && (INTCONb
      +                          its.RBIF == 1) && (PORTBbits.RB7 == 1) && (counter == 0)){
  2692     00E8  1D8B               	btfss	11,3	;volatile
  2693     00E9  28EB               	goto	u299_21
  2694     00EA  28EC               	goto	u299_20
  2695     00EB                     u299_21:
  2696     00EB  2903               	goto	i1l459
  2697     00EC                     u299_20:
  2698     00EC                     i1l2454:
  2699     00EC  1C0B               	btfss	11,0	;volatile
  2700     00ED  28EF               	goto	u300_21
  2701     00EE  28F0               	goto	u300_20
  2702     00EF                     u300_21:
  2703     00EF  2903               	goto	i1l459
  2704     00F0                     u300_20:
  2705     00F0                     i1l2456:
  2706     00F0  1283               	bcf	3,5	;RP0=0, select bank0
  2707     00F1  1303               	bcf	3,6	;RP1=0, select bank0
  2708     00F2  1F86               	btfss	6,7	;volatile
  2709     00F3  28F5               	goto	u301_21
  2710     00F4  28F6               	goto	u301_20
  2711     00F5                     u301_21:
  2712     00F5  2903               	goto	i1l459
  2713     00F6                     u301_20:
  2714     00F6                     i1l2458:
  2715     00F6  087B               	movf	_counter,w
  2716     00F7  1D03               	btfss	3,2
  2717     00F8  28FA               	goto	u302_21
  2718     00F9  28FB               	goto	u302_20
  2719     00FA                     u302_21:
  2720     00FA  2903               	goto	i1l459
  2721     00FB                     u302_20:
  2722     00FB                     i1l2460:
  2723                           
  2724                           ;MCAL_LAYER/INTERRUPT/interrupt_manager.c: 55:         counter = 1;
  2725     00FB  01FB               	clrf	_counter
  2726     00FC  0AFB               	incf	_counter,f
  2727     00FD                     i1l2462:
  2728                           
  2729                           ;MCAL_LAYER/INTERRUPT/interrupt_manager.c: 56:         ISR_RB7(0);
  2730     00FD  3000               	movlw	0
  2731     00FE  120A  118A  248E  120A  118A  	fcall	_ISR_RB7
  2732     0103                     i1l459:	
  2733                           ;MCAL_LAYER/INTERRUPT/interrupt_manager.c: 57:     }
  2734                           
  2735                           
  2736                           ;MCAL_LAYER/INTERRUPT/interrupt_manager.c: 60:     if((INTCONbits.RBIE == 1) && (INTCONb
      +                          its.RBIF == 1) && (PORTBbits.RB7 == 0) && (counter == 1)){
  2737     0103  1D8B               	btfss	11,3	;volatile
  2738     0104  2906               	goto	u303_21
  2739     0105  2907               	goto	u303_20
  2740     0106                     u303_21:
  2741     0106  291D               	goto	i1l462
  2742     0107                     u303_20:
  2743     0107                     i1l2464:
  2744     0107  1C0B               	btfss	11,0	;volatile
  2745     0108  290A               	goto	u304_21
  2746     0109  290B               	goto	u304_20
  2747     010A                     u304_21:
  2748     010A  291D               	goto	i1l462
  2749     010B                     u304_20:
  2750     010B                     i1l2466:
  2751     010B  1283               	bcf	3,5	;RP0=0, select bank0
  2752     010C  1303               	bcf	3,6	;RP1=0, select bank0
  2753     010D  1B86               	btfsc	6,7	;volatile
  2754     010E  2910               	goto	u305_21
  2755     010F  2911               	goto	u305_20
  2756     0110                     u305_21:
  2757     0110  291D               	goto	i1l462
  2758     0111                     u305_20:
  2759     0111                     i1l2468:
  2760     0111  037B               	decf	_counter,w
  2761     0112  1D03               	btfss	3,2
  2762     0113  2915               	goto	u306_21
  2763     0114  2916               	goto	u306_20
  2764     0115                     u306_21:
  2765     0115  291D               	goto	i1l462
  2766     0116                     u306_20:
  2767     0116                     i1l2470:
  2768                           
  2769                           ;MCAL_LAYER/INTERRUPT/interrupt_manager.c: 61:         counter = 0;
  2770     0116  01FB               	clrf	_counter
  2771     0117                     i1l2472:
  2772                           
  2773                           ;MCAL_LAYER/INTERRUPT/interrupt_manager.c: 62:         ISR_RB7(1);
  2774     0117  3001               	movlw	1
  2775     0118  120A  118A  248E  120A  118A  	fcall	_ISR_RB7
  2776     011D                     i1l462:	
  2777                           ;MCAL_LAYER/INTERRUPT/interrupt_manager.c: 63:     }
  2778                           
  2779     011D  087A               	movf	??_InterruptManager+3,w
  2780     011E  00FF               	movwf	btemp+1
  2781     011F  0879               	movf	??_InterruptManager+2,w
  2782     0120  008A               	movwf	10
  2783     0121  0878               	movf	??_InterruptManager+1,w
  2784     0122  0084               	movwf	4
  2785     0123  0E77               	swapf	??_InterruptManager,w
  2786     0124  0083               	movwf	3
  2787     0125  0EFE               	swapf	btemp,f
  2788     0126  0E7E               	swapf	btemp,w
  2789     0127  0009               	retfie
  2790     0128                     __end_of_InterruptManager:
  2791                           
  2792                           	psect	intentry
  2793     0004                     __pintentry:	
  2794                           ;incstack = 0
  2795                           ; Regs used in _InterruptManager: [wreg-fsr0h+status,2+status,0+btemp+1+pclath+cstack]
  2796                           
  2797     0004                     interrupt_function:
  2798     007E                     saved_w	set	btemp
  2799     0004  00FE               	movwf	btemp
  2800     0005  0E03               	swapf	3,w
  2801     0006  00F7               	movwf	??_InterruptManager
  2802     0007  0804               	movf	4,w
  2803     0008  00F8               	movwf	??_InterruptManager+1
  2804     0009  080A               	movf	10,w
  2805     000A  00F9               	movwf	??_InterruptManager+2
  2806     000B  087F               	movf	btemp+1,w
  2807     000C  00FA               	movwf	??_InterruptManager+3
  2808     000D  120A  118A  283C   	ljmp	_InterruptManager
  2809                           
  2810                           	psect	text9
  2811     048E                     __ptext9:	
  2812 ;; *************** function _ISR_RB7 *****************
  2813 ;; Defined at:
  2814 ;;		line 84 in file "MCAL_LAYER/INTERRUPT/external_interrupt.c"
  2815 ;; Parameters:    Size  Location     Type
  2816 ;;  n               1    wreg     unsigned char 
  2817 ;; Auto vars:     Size  Location     Type
  2818 ;;  n               1    6[COMMON] unsigned char 
  2819 ;; Return value:  Size  Location     Type
  2820 ;;                  1    wreg      void 
  2821 ;; Registers used:
  2822 ;;		wreg, fsr0l, fsr0h, status,2, status,0, btemp+1, pclath, cstack
  2823 ;; Tracked objects:
  2824 ;;		On entry : 0/0
  2825 ;;		On exit  : 0/0
  2826 ;;		Unchanged: 0/0
  2827 ;; Data sizes:     COMMON   BANK0   BANK1   BANK3   BANK2
  2828 ;;      Params:         0       0       0       0       0
  2829 ;;      Locals:         1       0       0       0       0
  2830 ;;      Temps:          0       0       0       0       0
  2831 ;;      Totals:         1       0       0       0       0
  2832 ;;Total ram usage:        1 bytes
  2833 ;; Hardware stack levels used: 1
  2834 ;; Hardware stack levels required when called: 2
  2835 ;; This function calls:
  2836 ;;		NULL
  2837 ;;		_rb_isr
  2838 ;; This function is called by:
  2839 ;;		_InterruptManager
  2840 ;; This function uses a non-reentrant model
  2841 ;;
  2842                           
  2843     048E                     _ISR_RB7:	
  2844                           ;psect for function _ISR_RB7
  2845                           
  2846                           
  2847                           ;incstack = 0
  2848                           ; Regs used in _ISR_RB7: [wreg-fsr0h+status,2+status,0+btemp+1+pclath+cstack]
  2849                           ;ISR_RB7@n stored from wreg
  2850     048E  00F6               	movwf	ISR_RB7@n
  2851     048F                     i1l2064:
  2852                           
  2853                           ;MCAL_LAYER/INTERRUPT/external_interrupt.c: 85:     (INTCONbits.INTF = 0);
  2854     048F  108B               	bcf	11,1	;volatile
  2855     0490                     i1l2066:
  2856                           
  2857                           ;MCAL_LAYER/INTERRUPT/external_interrupt.c: 86:     if(!n){
  2858     0490  0876               	movf	ISR_RB7@n,w
  2859     0491  1D03               	btfss	3,2
  2860     0492  2C94               	goto	u225_21
  2861     0493  2C95               	goto	u225_20
  2862     0494                     u225_21:
  2863     0494  2CA3               	goto	i1l2072
  2864     0495                     u225_20:
  2865     0495                     i1l2068:
  2866                           
  2867                           ;MCAL_LAYER/INTERRUPT/external_interrupt.c: 87:     if(EXT_RB7_HIGH_HANDLER){
  2868     0495  1283               	bcf	3,5	;RP0=0, select bank0
  2869     0496  1303               	bcf	3,6	;RP1=0, select bank0
  2870     0497  0859               	movf	_EXT_RB7_HIGH_HANDLER,w
  2871     0498  1903               	btfsc	3,2
  2872     0499  2C9B               	goto	u226_21
  2873     049A  2C9C               	goto	u226_20
  2874     049B                     u226_21:
  2875     049B  2CB0               	goto	i1l382
  2876     049C                     u226_20:
  2877     049C                     i1l2070:
  2878                           
  2879                           ;MCAL_LAYER/INTERRUPT/external_interrupt.c: 88:         EXT_RB7_HIGH_HANDLER();
  2880     049C  0859               	movf	_EXT_RB7_HIGH_HANDLER,w
  2881     049D  120A  118A  2030  120A  118A  	fcall	i1fptable
  2882                           
  2883                           ;MCAL_LAYER/INTERRUPT/external_interrupt.c: 89:     }
  2884     04A2  2CB0               	goto	i1l382
  2885     04A3                     i1l2072:
  2886                           
  2887                           ;MCAL_LAYER/INTERRUPT/external_interrupt.c: 93:         if(EXT_RB7_LOW_HANDLER){
  2888     04A3  1283               	bcf	3,5	;RP0=0, select bank0
  2889     04A4  1303               	bcf	3,6	;RP1=0, select bank0
  2890     04A5  0858               	movf	_EXT_RB7_LOW_HANDLER,w
  2891     04A6  1903               	btfsc	3,2
  2892     04A7  2CA9               	goto	u227_21
  2893     04A8  2CAA               	goto	u227_20
  2894     04A9                     u227_21:
  2895     04A9  2CB0               	goto	i1l382
  2896     04AA                     u227_20:
  2897     04AA                     i1l2074:
  2898                           
  2899                           ;MCAL_LAYER/INTERRUPT/external_interrupt.c: 94:         EXT_RB7_LOW_HANDLER();
  2900     04AA  0858               	movf	_EXT_RB7_LOW_HANDLER,w
  2901     04AB  120A  118A  2030  120A  118A  	fcall	i1fptable
  2902     04B0                     i1l382:	
  2903                           ;MCAL_LAYER/INTERRUPT/external_interrupt.c: 95:     }
  2904                           
  2905     04B0  0008               	return
  2906     04B1                     __end_of_ISR_RB7:
  2907                           
  2908                           	psect	text10
  2909     04B1                     __ptext10:	
  2910 ;; *************** function _ISR_RB6 *****************
  2911 ;; Defined at:
  2912 ;;		line 68 in file "MCAL_LAYER/INTERRUPT/external_interrupt.c"
  2913 ;; Parameters:    Size  Location     Type
  2914 ;;  n               1    wreg     unsigned char 
  2915 ;; Auto vars:     Size  Location     Type
  2916 ;;  n               1    6[COMMON] unsigned char 
  2917 ;; Return value:  Size  Location     Type
  2918 ;;                  1    wreg      void 
  2919 ;; Registers used:
  2920 ;;		wreg, fsr0l, fsr0h, status,2, status,0, btemp+1, pclath, cstack
  2921 ;; Tracked objects:
  2922 ;;		On entry : 0/0
  2923 ;;		On exit  : 0/0
  2924 ;;		Unchanged: 0/0
  2925 ;; Data sizes:     COMMON   BANK0   BANK1   BANK3   BANK2
  2926 ;;      Params:         0       0       0       0       0
  2927 ;;      Locals:         1       0       0       0       0
  2928 ;;      Temps:          0       0       0       0       0
  2929 ;;      Totals:         1       0       0       0       0
  2930 ;;Total ram usage:        1 bytes
  2931 ;; Hardware stack levels used: 1
  2932 ;; Hardware stack levels required when called: 2
  2933 ;; This function calls:
  2934 ;;		NULL
  2935 ;;		_rb_isr
  2936 ;; This function is called by:
  2937 ;;		_InterruptManager
  2938 ;; This function uses a non-reentrant model
  2939 ;;
  2940                           
  2941     04B1                     _ISR_RB6:	
  2942                           ;psect for function _ISR_RB6
  2943                           
  2944                           
  2945                           ;incstack = 0
  2946                           ; Regs used in _ISR_RB6: [wreg-fsr0h+status,2+status,0+btemp+1+pclath+cstack]
  2947                           ;ISR_RB6@n stored from wreg
  2948     04B1  00F6               	movwf	ISR_RB6@n
  2949     04B2                     i1l2052:
  2950                           
  2951                           ;MCAL_LAYER/INTERRUPT/external_interrupt.c: 69:     (INTCONbits.INTF = 0);
  2952     04B2  108B               	bcf	11,1	;volatile
  2953     04B3                     i1l2054:
  2954                           
  2955                           ;MCAL_LAYER/INTERRUPT/external_interrupt.c: 70:     if(!n){
  2956     04B3  0876               	movf	ISR_RB6@n,w
  2957     04B4  1D03               	btfss	3,2
  2958     04B5  2CB7               	goto	u222_21
  2959     04B6  2CB8               	goto	u222_20
  2960     04B7                     u222_21:
  2961     04B7  2CC6               	goto	i1l2060
  2962     04B8                     u222_20:
  2963     04B8                     i1l2056:
  2964                           
  2965                           ;MCAL_LAYER/INTERRUPT/external_interrupt.c: 71:     if(EXT_RB6_HIGH_HANDLER){
  2966     04B8  1283               	bcf	3,5	;RP0=0, select bank0
  2967     04B9  1303               	bcf	3,6	;RP1=0, select bank0
  2968     04BA  085B               	movf	_EXT_RB6_HIGH_HANDLER,w
  2969     04BB  1903               	btfsc	3,2
  2970     04BC  2CBE               	goto	u223_21
  2971     04BD  2CBF               	goto	u223_20
  2972     04BE                     u223_21:
  2973     04BE  2CD3               	goto	i1l373
  2974     04BF                     u223_20:
  2975     04BF                     i1l2058:
  2976                           
  2977                           ;MCAL_LAYER/INTERRUPT/external_interrupt.c: 72:         EXT_RB6_HIGH_HANDLER();
  2978     04BF  085B               	movf	_EXT_RB6_HIGH_HANDLER,w
  2979     04C0  120A  118A  2030  120A  118A  	fcall	i1fptable
  2980                           
  2981                           ;MCAL_LAYER/INTERRUPT/external_interrupt.c: 73:     }
  2982     04C5  2CD3               	goto	i1l373
  2983     04C6                     i1l2060:
  2984                           
  2985                           ;MCAL_LAYER/INTERRUPT/external_interrupt.c: 77:         if(EXT_RB6_LOW_HANDLER){
  2986     04C6  1283               	bcf	3,5	;RP0=0, select bank0
  2987     04C7  1303               	bcf	3,6	;RP1=0, select bank0
  2988     04C8  085A               	movf	_EXT_RB6_LOW_HANDLER,w
  2989     04C9  1903               	btfsc	3,2
  2990     04CA  2CCC               	goto	u224_21
  2991     04CB  2CCD               	goto	u224_20
  2992     04CC                     u224_21:
  2993     04CC  2CD3               	goto	i1l373
  2994     04CD                     u224_20:
  2995     04CD                     i1l2062:
  2996                           
  2997                           ;MCAL_LAYER/INTERRUPT/external_interrupt.c: 78:         EXT_RB6_LOW_HANDLER();
  2998     04CD  085A               	movf	_EXT_RB6_LOW_HANDLER,w
  2999     04CE  120A  118A  2030  120A  118A  	fcall	i1fptable
  3000     04D3                     i1l373:	
  3001                           ;MCAL_LAYER/INTERRUPT/external_interrupt.c: 79:     }
  3002                           
  3003     04D3  0008               	return
  3004     04D4                     __end_of_ISR_RB6:
  3005                           
  3006                           	psect	text11
  3007     04D4                     __ptext11:	
  3008 ;; *************** function _ISR_RB5 *****************
  3009 ;; Defined at:
  3010 ;;		line 52 in file "MCAL_LAYER/INTERRUPT/external_interrupt.c"
  3011 ;; Parameters:    Size  Location     Type
  3012 ;;  n               1    wreg     unsigned char 
  3013 ;; Auto vars:     Size  Location     Type
  3014 ;;  n               1    6[COMMON] unsigned char 
  3015 ;; Return value:  Size  Location     Type
  3016 ;;                  1    wreg      void 
  3017 ;; Registers used:
  3018 ;;		wreg, fsr0l, fsr0h, status,2, status,0, btemp+1, pclath, cstack
  3019 ;; Tracked objects:
  3020 ;;		On entry : 0/0
  3021 ;;		On exit  : 0/0
  3022 ;;		Unchanged: 0/0
  3023 ;; Data sizes:     COMMON   BANK0   BANK1   BANK3   BANK2
  3024 ;;      Params:         0       0       0       0       0
  3025 ;;      Locals:         1       0       0       0       0
  3026 ;;      Temps:          0       0       0       0       0
  3027 ;;      Totals:         1       0       0       0       0
  3028 ;;Total ram usage:        1 bytes
  3029 ;; Hardware stack levels used: 1
  3030 ;; Hardware stack levels required when called: 2
  3031 ;; This function calls:
  3032 ;;		NULL
  3033 ;;		_rb_isr
  3034 ;; This function is called by:
  3035 ;;		_InterruptManager
  3036 ;; This function uses a non-reentrant model
  3037 ;;
  3038                           
  3039     04D4                     _ISR_RB5:	
  3040                           ;psect for function _ISR_RB5
  3041                           
  3042                           
  3043                           ;incstack = 0
  3044                           ; Regs used in _ISR_RB5: [wreg-fsr0h+status,2+status,0+btemp+1+pclath+cstack]
  3045                           ;ISR_RB5@n stored from wreg
  3046     04D4  00F6               	movwf	ISR_RB5@n
  3047     04D5                     i1l2040:
  3048                           
  3049                           ;MCAL_LAYER/INTERRUPT/external_interrupt.c: 53:     (INTCONbits.INTF = 0);
  3050     04D5  108B               	bcf	11,1	;volatile
  3051     04D6                     i1l2042:
  3052                           
  3053                           ;MCAL_LAYER/INTERRUPT/external_interrupt.c: 54:     if(!n){
  3054     04D6  0876               	movf	ISR_RB5@n,w
  3055     04D7  1D03               	btfss	3,2
  3056     04D8  2CDA               	goto	u219_21
  3057     04D9  2CDB               	goto	u219_20
  3058     04DA                     u219_21:
  3059     04DA  2CE9               	goto	i1l2048
  3060     04DB                     u219_20:
  3061     04DB                     i1l2044:
  3062                           
  3063                           ;MCAL_LAYER/INTERRUPT/external_interrupt.c: 55:     if(EXT_RB5_HIGH_HANDLER){
  3064     04DB  1283               	bcf	3,5	;RP0=0, select bank0
  3065     04DC  1303               	bcf	3,6	;RP1=0, select bank0
  3066     04DD  085D               	movf	_EXT_RB5_HIGH_HANDLER,w
  3067     04DE  1903               	btfsc	3,2
  3068     04DF  2CE1               	goto	u220_21
  3069     04E0  2CE2               	goto	u220_20
  3070     04E1                     u220_21:
  3071     04E1  2CF6               	goto	i1l364
  3072     04E2                     u220_20:
  3073     04E2                     i1l2046:
  3074                           
  3075                           ;MCAL_LAYER/INTERRUPT/external_interrupt.c: 56:         EXT_RB5_HIGH_HANDLER();
  3076     04E2  085D               	movf	_EXT_RB5_HIGH_HANDLER,w
  3077     04E3  120A  118A  2030  120A  118A  	fcall	i1fptable
  3078                           
  3079                           ;MCAL_LAYER/INTERRUPT/external_interrupt.c: 57:     }
  3080     04E8  2CF6               	goto	i1l364
  3081     04E9                     i1l2048:
  3082                           
  3083                           ;MCAL_LAYER/INTERRUPT/external_interrupt.c: 61:         if(EXT_RB5_LOW_HANDLER){
  3084     04E9  1283               	bcf	3,5	;RP0=0, select bank0
  3085     04EA  1303               	bcf	3,6	;RP1=0, select bank0
  3086     04EB  085C               	movf	_EXT_RB5_LOW_HANDLER,w
  3087     04EC  1903               	btfsc	3,2
  3088     04ED  2CEF               	goto	u221_21
  3089     04EE  2CF0               	goto	u221_20
  3090     04EF                     u221_21:
  3091     04EF  2CF6               	goto	i1l364
  3092     04F0                     u221_20:
  3093     04F0                     i1l2050:
  3094                           
  3095                           ;MCAL_LAYER/INTERRUPT/external_interrupt.c: 62:         EXT_RB5_LOW_HANDLER();
  3096     04F0  085C               	movf	_EXT_RB5_LOW_HANDLER,w
  3097     04F1  120A  118A  2030  120A  118A  	fcall	i1fptable
  3098     04F6                     i1l364:	
  3099                           ;MCAL_LAYER/INTERRUPT/external_interrupt.c: 63:     }
  3100                           
  3101     04F6  0008               	return
  3102     04F7                     __end_of_ISR_RB5:
  3103                           
  3104                           	psect	text12
  3105     04F7                     __ptext12:	
  3106 ;; *************** function _ISR_RB4 *****************
  3107 ;; Defined at:
  3108 ;;		line 37 in file "MCAL_LAYER/INTERRUPT/external_interrupt.c"
  3109 ;; Parameters:    Size  Location     Type
  3110 ;;  n               1    wreg     unsigned char 
  3111 ;; Auto vars:     Size  Location     Type
  3112 ;;  n               1    6[COMMON] unsigned char 
  3113 ;; Return value:  Size  Location     Type
  3114 ;;                  1    wreg      void 
  3115 ;; Registers used:
  3116 ;;		wreg, fsr0l, fsr0h, status,2, status,0, btemp+1, pclath, cstack
  3117 ;; Tracked objects:
  3118 ;;		On entry : 0/0
  3119 ;;		On exit  : 0/0
  3120 ;;		Unchanged: 0/0
  3121 ;; Data sizes:     COMMON   BANK0   BANK1   BANK3   BANK2
  3122 ;;      Params:         0       0       0       0       0
  3123 ;;      Locals:         1       0       0       0       0
  3124 ;;      Temps:          0       0       0       0       0
  3125 ;;      Totals:         1       0       0       0       0
  3126 ;;Total ram usage:        1 bytes
  3127 ;; Hardware stack levels used: 1
  3128 ;; Hardware stack levels required when called: 2
  3129 ;; This function calls:
  3130 ;;		NULL
  3131 ;;		_rb_isr
  3132 ;; This function is called by:
  3133 ;;		_InterruptManager
  3134 ;; This function uses a non-reentrant model
  3135 ;;
  3136                           
  3137     04F7                     _ISR_RB4:	
  3138                           ;psect for function _ISR_RB4
  3139                           
  3140                           
  3141                           ;incstack = 0
  3142                           ; Regs used in _ISR_RB4: [wreg-fsr0h+status,2+status,0+btemp+1+pclath+cstack]
  3143                           ;ISR_RB4@n stored from wreg
  3144     04F7  00F6               	movwf	ISR_RB4@n
  3145     04F8                     i1l2028:
  3146                           
  3147                           ;MCAL_LAYER/INTERRUPT/external_interrupt.c: 38:     (INTCONbits.INTF = 0);
  3148     04F8  108B               	bcf	11,1	;volatile
  3149     04F9                     i1l2030:
  3150                           
  3151                           ;MCAL_LAYER/INTERRUPT/external_interrupt.c: 39:     if(!n){
  3152     04F9  0876               	movf	ISR_RB4@n,w
  3153     04FA  1D03               	btfss	3,2
  3154     04FB  2CFD               	goto	u216_21
  3155     04FC  2CFE               	goto	u216_20
  3156     04FD                     u216_21:
  3157     04FD  2D0A               	goto	i1l2036
  3158     04FE                     u216_20:
  3159     04FE                     i1l2032:
  3160                           
  3161                           ;MCAL_LAYER/INTERRUPT/external_interrupt.c: 40:     if(EXT_RB4_HIGH_HANDLER){
  3162     04FE  087C               	movf	_EXT_RB4_HIGH_HANDLER,w
  3163     04FF  1903               	btfsc	3,2
  3164     0500  2D02               	goto	u217_21
  3165     0501  2D03               	goto	u217_20
  3166     0502                     u217_21:
  3167     0502  2D17               	goto	i1l355
  3168     0503                     u217_20:
  3169     0503                     i1l2034:
  3170                           
  3171                           ;MCAL_LAYER/INTERRUPT/external_interrupt.c: 41:         EXT_RB4_HIGH_HANDLER();
  3172     0503  087C               	movf	_EXT_RB4_HIGH_HANDLER,w
  3173     0504  120A  118A  2030  120A  118A  	fcall	i1fptable
  3174                           
  3175                           ;MCAL_LAYER/INTERRUPT/external_interrupt.c: 42:     }
  3176     0509  2D17               	goto	i1l355
  3177     050A                     i1l2036:
  3178                           
  3179                           ;MCAL_LAYER/INTERRUPT/external_interrupt.c: 46:         if(EXT_RB4_LOW_HANDLER){
  3180     050A  1283               	bcf	3,5	;RP0=0, select bank0
  3181     050B  1303               	bcf	3,6	;RP1=0, select bank0
  3182     050C  085E               	movf	_EXT_RB4_LOW_HANDLER,w
  3183     050D  1903               	btfsc	3,2
  3184     050E  2D10               	goto	u218_21
  3185     050F  2D11               	goto	u218_20
  3186     0510                     u218_21:
  3187     0510  2D17               	goto	i1l355
  3188     0511                     u218_20:
  3189     0511                     i1l2038:
  3190                           
  3191                           ;MCAL_LAYER/INTERRUPT/external_interrupt.c: 47:         EXT_RB4_LOW_HANDLER();
  3192     0511  085E               	movf	_EXT_RB4_LOW_HANDLER,w
  3193     0512  120A  118A  2030  120A  118A  	fcall	i1fptable
  3194     0517                     i1l355:	
  3195                           ;MCAL_LAYER/INTERRUPT/external_interrupt.c: 48:     }
  3196                           
  3197     0517  0008               	return
  3198     0518                     __end_of_ISR_RB4:
  3199                           
  3200                           	psect	text13
  3201     057B                     __ptext13:	
  3202 ;; *************** function _rb_isr *****************
  3203 ;; Defined at:
  3204 ;;		line 12 in file "Temperature_Controlled_Fan_System.c"
  3205 ;; Parameters:    Size  Location     Type
  3206 ;;		None
  3207 ;; Auto vars:     Size  Location     Type
  3208 ;;		None
  3209 ;; Return value:  Size  Location     Type
  3210 ;;                  1    wreg      void 
  3211 ;; Registers used:
  3212 ;;		wreg, fsr0l, fsr0h, status,2, status,0, btemp+1, pclath, cstack
  3213 ;; Tracked objects:
  3214 ;;		On entry : 0/0
  3215 ;;		On exit  : 0/0
  3216 ;;		Unchanged: 0/0
  3217 ;; Data sizes:     COMMON   BANK0   BANK1   BANK3   BANK2
  3218 ;;      Params:         0       0       0       0       0
  3219 ;;      Locals:         0       0       0       0       0
  3220 ;;      Temps:          0       0       0       0       0
  3221 ;;      Totals:         0       0       0       0       0
  3222 ;;Total ram usage:        0 bytes
  3223 ;; Hardware stack levels used: 1
  3224 ;; Hardware stack levels required when called: 1
  3225 ;; This function calls:
  3226 ;;		_gpio_pin_toggle_logic
  3227 ;; This function is called by:
  3228 ;;		_ISR_RB4
  3229 ;;		_ISR_RB5
  3230 ;;		_ISR_RB6
  3231 ;;		_ISR_RB7
  3232 ;; This function uses a non-reentrant model
  3233 ;;
  3234                           
  3235     057B                     _rb_isr:	
  3236                           ;psect for function _rb_isr
  3237                           
  3238     057B                     i1l1980:	
  3239                           ;incstack = 0
  3240                           ; Regs used in _rb_isr: [wreg-fsr0h+status,2+status,0+btemp+1+pclath+cstack]
  3241                           
  3242                           
  3243                           ;Temperature_Controlled_Fan_System.c: 13:     gpio_pin_toggle_logic(&pin2);
  3244     057B  304A               	movlw	(low (_pin2| 0))& (0+255)
  3245     057C  120A  118A  22E8  120A  118A  	fcall	_gpio_pin_toggle_logic
  3246     0581                     i1l480:
  3247     0581  0008               	return
  3248     0582                     __end_of_rb_isr:
  3249                           
  3250                           	psect	text14
  3251     0565                     __ptext14:	
  3252 ;; *************** function _ISR_INTX *****************
  3253 ;; Defined at:
  3254 ;;		line 29 in file "MCAL_LAYER/INTERRUPT/external_interrupt.c"
  3255 ;; Parameters:    Size  Location     Type
  3256 ;;		None
  3257 ;; Auto vars:     Size  Location     Type
  3258 ;;		None
  3259 ;; Return value:  Size  Location     Type
  3260 ;;                  1    wreg      void 
  3261 ;; Registers used:
  3262 ;;		wreg, fsr0l, fsr0h, status,2, status,0, btemp+1, pclath, cstack
  3263 ;; Tracked objects:
  3264 ;;		On entry : 0/0
  3265 ;;		On exit  : 0/0
  3266 ;;		Unchanged: 0/0
  3267 ;; Data sizes:     COMMON   BANK0   BANK1   BANK3   BANK2
  3268 ;;      Params:         0       0       0       0       0
  3269 ;;      Locals:         0       0       0       0       0
  3270 ;;      Temps:          0       0       0       0       0
  3271 ;;      Totals:         0       0       0       0       0
  3272 ;;Total ram usage:        0 bytes
  3273 ;; Hardware stack levels used: 1
  3274 ;; Hardware stack levels required when called: 2
  3275 ;; This function calls:
  3276 ;;		NULL
  3277 ;;		_isr
  3278 ;; This function is called by:
  3279 ;;		_InterruptManager
  3280 ;; This function uses a non-reentrant model
  3281 ;;
  3282                           
  3283     0565                     _ISR_INTX:	
  3284                           ;psect for function _ISR_INTX
  3285                           
  3286     0565                     i1l2022:	
  3287                           ;incstack = 0
  3288                           ; Regs used in _ISR_INTX: [wreg-fsr0h+status,2+status,0+btemp+1+pclath+cstack]
  3289                           
  3290                           
  3291                           ;MCAL_LAYER/INTERRUPT/external_interrupt.c: 30:     (INTCONbits.INTF = 0);
  3292     0565  108B               	bcf	11,1	;volatile
  3293     0566                     i1l2024:
  3294                           
  3295                           ;MCAL_LAYER/INTERRUPT/external_interrupt.c: 31:     if(EXT_INTX_HANDLER){
  3296     0566  087D               	movf	_EXT_INTX_HANDLER,w
  3297     0567  1903               	btfsc	3,2
  3298     0568  2D6A               	goto	u215_21
  3299     0569  2D6B               	goto	u215_20
  3300     056A                     u215_21:
  3301     056A  2D71               	goto	i1l346
  3302     056B                     u215_20:
  3303     056B                     i1l2026:
  3304                           
  3305                           ;MCAL_LAYER/INTERRUPT/external_interrupt.c: 32:         EXT_INTX_HANDLER();
  3306     056B  087D               	movf	_EXT_INTX_HANDLER,w
  3307     056C  120A  118A  2030  120A  118A  	fcall	i1fptable
  3308     0571                     i1l346:	
  3309                           ;MCAL_LAYER/INTERRUPT/external_interrupt.c: 33:     }
  3310                           
  3311     0571  0008               	return
  3312     0572                     __end_of_ISR_INTX:
  3313                           
  3314                           	psect	text15
  3315     0582                     __ptext15:	
  3316 ;; *************** function _isr *****************
  3317 ;; Defined at:
  3318 ;;		line 8 in file "Temperature_Controlled_Fan_System.c"
  3319 ;; Parameters:    Size  Location     Type
  3320 ;;		None
  3321 ;; Auto vars:     Size  Location     Type
  3322 ;;		None
  3323 ;; Return value:  Size  Location     Type
  3324 ;;                  1    wreg      void 
  3325 ;; Registers used:
  3326 ;;		wreg, fsr0l, fsr0h, status,2, status,0, btemp+1, pclath, cstack
  3327 ;; Tracked objects:
  3328 ;;		On entry : 0/0
  3329 ;;		On exit  : 0/0
  3330 ;;		Unchanged: 0/0
  3331 ;; Data sizes:     COMMON   BANK0   BANK1   BANK3   BANK2
  3332 ;;      Params:         0       0       0       0       0
  3333 ;;      Locals:         0       0       0       0       0
  3334 ;;      Temps:          0       0       0       0       0
  3335 ;;      Totals:         0       0       0       0       0
  3336 ;;Total ram usage:        0 bytes
  3337 ;; Hardware stack levels used: 1
  3338 ;; Hardware stack levels required when called: 1
  3339 ;; This function calls:
  3340 ;;		_gpio_pin_toggle_logic
  3341 ;; This function is called by:
  3342 ;;		_ISR_INTX
  3343 ;; This function uses a non-reentrant model
  3344 ;;
  3345                           
  3346     0582                     _isr:	
  3347                           ;psect for function _isr
  3348                           
  3349     0582                     i1l1978:	
  3350                           ;incstack = 0
  3351                           ; Regs used in _isr: [wreg-fsr0h+status,2+status,0+btemp+1+pclath+cstack]
  3352                           
  3353                           
  3354                           ;Temperature_Controlled_Fan_System.c: 9:     gpio_pin_toggle_logic(&pin1);
  3355     0582  304B               	movlw	(low (_pin1| 0))& (0+255)
  3356     0583  120A  118A  22E8  120A  118A  	fcall	_gpio_pin_toggle_logic
  3357     0588                     i1l477:
  3358     0588  0008               	return
  3359     0589                     __end_of_isr:
  3360                           
  3361                           	psect	text16
  3362     02E8                     __ptext16:	
  3363 ;; *************** function _gpio_pin_toggle_logic *****************
  3364 ;; Defined at:
  3365 ;;		line 88 in file "MCAL_LAYER/GPIO/mcal_gpio.c"
  3366 ;; Parameters:    Size  Location     Type
  3367 ;;  pin             1    wreg     PTR const struct .
  3368 ;;		 -> pin2(1), pin1(1), 
  3369 ;; Auto vars:     Size  Location     Type
  3370 ;;  pin             1    5[COMMON] PTR const struct .
  3371 ;;		 -> pin2(1), pin1(1), 
  3372 ;;  ret             1    0        unsigned char 
  3373 ;; Return value:  Size  Location     Type
  3374 ;;                  1    wreg      unsigned char 
  3375 ;; Registers used:
  3376 ;;		wreg, fsr0l, fsr0h, status,2, status,0, btemp+1
  3377 ;; Tracked objects:
  3378 ;;		On entry : 0/0
  3379 ;;		On exit  : 0/0
  3380 ;;		Unchanged: 0/0
  3381 ;; Data sizes:     COMMON   BANK0   BANK1   BANK3   BANK2
  3382 ;;      Params:         0       0       0       0       0
  3383 ;;      Locals:         1       0       0       0       0
  3384 ;;      Temps:          5       0       0       0       0
  3385 ;;      Totals:         6       0       0       0       0
  3386 ;;Total ram usage:        6 bytes
  3387 ;; Hardware stack levels used: 1
  3388 ;; This function calls:
  3389 ;;		Nothing
  3390 ;; This function is called by:
  3391 ;;		_isr
  3392 ;;		_rb_isr
  3393 ;; This function uses a non-reentrant model
  3394 ;;
  3395                           
  3396     02E8                     _gpio_pin_toggle_logic:	
  3397                           ;psect for function _gpio_pin_toggle_logic
  3398                           
  3399                           
  3400                           ;incstack = 0
  3401                           ; Regs used in _gpio_pin_toggle_logic: [wreg-fsr0h+status,2+status,0+btemp+1]
  3402                           ;gpio_pin_toggle_logic@pin stored from wreg
  3403     02E8  00F5               	movwf	gpio_pin_toggle_logic@pin
  3404     02E9                     i1l1896:
  3405     02E9                     i1l1898:
  3406                           
  3407                           ;MCAL_LAYER/GPIO/mcal_gpio.c: 90:     if (pin == ((void*)0)) {
  3408     02E9  0875               	movf	gpio_pin_toggle_logic@pin,w
  3409     02EA  1D03               	btfss	3,2
  3410     02EB  2AED               	goto	u192_21
  3411     02EC  2AEE               	goto	u192_20
  3412     02ED                     u192_21:
  3413     02ED  2AEF               	goto	i1l1902
  3414     02EE                     u192_20:
  3415     02EE                     i1l1900:
  3416                           
  3417                           ;MCAL_LAYER/GPIO/mcal_gpio.c: 92:     } else {
  3418     02EE  2B89               	goto	i1l261
  3419     02EF                     i1l1902:
  3420                           
  3421                           ;MCAL_LAYER/GPIO/mcal_gpio.c: 93:         if ((pin->port == PORTA_INDEX && pin->pin < 6)
      +                           || (pin->port == PORTB_INDEX && pin->pin < 8) || (pin->port == PORTC_INDEX && pin->pin 
      +                          < 8) ||
  3422     02EF  0875               	movf	gpio_pin_toggle_logic@pin,w
  3423     02F0  0084               	movwf	4
  3424     02F1  1383               	bcf	3,7	;select IRP bank0
  3425     02F2  0800               	movf	0,w
  3426     02F3  3907               	andlw	7
  3427     02F4  3A00               	xorlw	0
  3428     02F5  1D03               	skipz
  3429     02F6  2AF8               	goto	u193_21
  3430     02F7  2AF9               	goto	u193_20
  3431     02F8                     u193_21:
  3432     02F8  2B07               	goto	i1l1906
  3433     02F9                     u193_20:
  3434     02F9                     i1l1904:
  3435     02F9  0875               	movf	gpio_pin_toggle_logic@pin,w
  3436     02FA  0084               	movwf	4
  3437     02FB  0C00               	rrf	0,w
  3438     02FC  00F0               	movwf	??_gpio_pin_toggle_logic
  3439     02FD  0CF0               	rrf	??_gpio_pin_toggle_logic,f
  3440     02FE  0C70               	rrf	??_gpio_pin_toggle_logic,w
  3441     02FF  3907               	andlw	7
  3442     0300  00F1               	movwf	??_gpio_pin_toggle_logic+1
  3443     0301  3006               	movlw	6
  3444     0302  0271               	subwf	??_gpio_pin_toggle_logic+1,w
  3445     0303  1C03               	skipc
  3446     0304  2B06               	goto	u194_21
  3447     0305  2B07               	goto	u194_20
  3448     0306                     u194_21:
  3449     0306  2B63               	goto	i1l1922
  3450     0307                     u194_20:
  3451     0307                     i1l1906:
  3452     0307  0875               	movf	gpio_pin_toggle_logic@pin,w
  3453     0308  0084               	movwf	4
  3454     0309  0800               	movf	0,w
  3455     030A  3907               	andlw	7
  3456     030B  3A01               	xorlw	1
  3457     030C  1D03               	skipz
  3458     030D  2B0F               	goto	u195_21
  3459     030E  2B10               	goto	u195_20
  3460     030F                     u195_21:
  3461     030F  2B1E               	goto	i1l1910
  3462     0310                     u195_20:
  3463     0310                     i1l1908:
  3464     0310  0875               	movf	gpio_pin_toggle_logic@pin,w
  3465     0311  0084               	movwf	4
  3466     0312  0C00               	rrf	0,w
  3467     0313  00F0               	movwf	??_gpio_pin_toggle_logic
  3468     0314  0CF0               	rrf	??_gpio_pin_toggle_logic,f
  3469     0315  0C70               	rrf	??_gpio_pin_toggle_logic,w
  3470     0316  3907               	andlw	7
  3471     0317  00F1               	movwf	??_gpio_pin_toggle_logic+1
  3472     0318  3008               	movlw	8
  3473     0319  0271               	subwf	??_gpio_pin_toggle_logic+1,w
  3474     031A  1C03               	skipc
  3475     031B  2B1D               	goto	u196_21
  3476     031C  2B1E               	goto	u196_20
  3477     031D                     u196_21:
  3478     031D  2B63               	goto	i1l1922
  3479     031E                     u196_20:
  3480     031E                     i1l1910:
  3481     031E  0875               	movf	gpio_pin_toggle_logic@pin,w
  3482     031F  0084               	movwf	4
  3483     0320  0800               	movf	0,w
  3484     0321  3907               	andlw	7
  3485     0322  3A02               	xorlw	2
  3486     0323  1D03               	skipz
  3487     0324  2B26               	goto	u197_21
  3488     0325  2B27               	goto	u197_20
  3489     0326                     u197_21:
  3490     0326  2B35               	goto	i1l1914
  3491     0327                     u197_20:
  3492     0327                     i1l1912:
  3493     0327  0875               	movf	gpio_pin_toggle_logic@pin,w
  3494     0328  0084               	movwf	4
  3495     0329  0C00               	rrf	0,w
  3496     032A  00F0               	movwf	??_gpio_pin_toggle_logic
  3497     032B  0CF0               	rrf	??_gpio_pin_toggle_logic,f
  3498     032C  0C70               	rrf	??_gpio_pin_toggle_logic,w
  3499     032D  3907               	andlw	7
  3500     032E  00F1               	movwf	??_gpio_pin_toggle_logic+1
  3501     032F  3008               	movlw	8
  3502     0330  0271               	subwf	??_gpio_pin_toggle_logic+1,w
  3503     0331  1C03               	skipc
  3504     0332  2B34               	goto	u198_21
  3505     0333  2B35               	goto	u198_20
  3506     0334                     u198_21:
  3507     0334  2B63               	goto	i1l1922
  3508     0335                     u198_20:
  3509     0335                     i1l1914:
  3510     0335  0875               	movf	gpio_pin_toggle_logic@pin,w
  3511     0336  0084               	movwf	4
  3512     0337  0800               	movf	0,w
  3513     0338  3907               	andlw	7
  3514     0339  3A03               	xorlw	3
  3515     033A  1D03               	skipz
  3516     033B  2B3D               	goto	u199_21
  3517     033C  2B3E               	goto	u199_20
  3518     033D                     u199_21:
  3519     033D  2B4C               	goto	i1l1918
  3520     033E                     u199_20:
  3521     033E                     i1l1916:
  3522     033E  0875               	movf	gpio_pin_toggle_logic@pin,w
  3523     033F  0084               	movwf	4
  3524     0340  0C00               	rrf	0,w
  3525     0341  00F0               	movwf	??_gpio_pin_toggle_logic
  3526     0342  0CF0               	rrf	??_gpio_pin_toggle_logic,f
  3527     0343  0C70               	rrf	??_gpio_pin_toggle_logic,w
  3528     0344  3907               	andlw	7
  3529     0345  00F1               	movwf	??_gpio_pin_toggle_logic+1
  3530     0346  3008               	movlw	8
  3531     0347  0271               	subwf	??_gpio_pin_toggle_logic+1,w
  3532     0348  1C03               	skipc
  3533     0349  2B4B               	goto	u200_21
  3534     034A  2B4C               	goto	u200_20
  3535     034B                     u200_21:
  3536     034B  2B63               	goto	i1l1922
  3537     034C                     u200_20:
  3538     034C                     i1l1918:
  3539     034C  0875               	movf	gpio_pin_toggle_logic@pin,w
  3540     034D  0084               	movwf	4
  3541     034E  0800               	movf	0,w
  3542     034F  3907               	andlw	7
  3543     0350  3A04               	xorlw	4
  3544     0351  1D03               	skipz
  3545     0352  2B54               	goto	u201_21
  3546     0353  2B55               	goto	u201_20
  3547     0354                     u201_21:
  3548     0354  2AEE               	goto	i1l1900
  3549     0355                     u201_20:
  3550     0355                     i1l1920:
  3551     0355  0875               	movf	gpio_pin_toggle_logic@pin,w
  3552     0356  0084               	movwf	4
  3553     0357  0C00               	rrf	0,w
  3554     0358  00F0               	movwf	??_gpio_pin_toggle_logic
  3555     0359  0CF0               	rrf	??_gpio_pin_toggle_logic,f
  3556     035A  0C70               	rrf	??_gpio_pin_toggle_logic,w
  3557     035B  3907               	andlw	7
  3558     035C  00F1               	movwf	??_gpio_pin_toggle_logic+1
  3559     035D  3003               	movlw	3
  3560     035E  0271               	subwf	??_gpio_pin_toggle_logic+1,w
  3561     035F  1803               	skipnc
  3562     0360  2B62               	goto	u202_21
  3563     0361  2B63               	goto	u202_20
  3564     0362                     u202_21:
  3565     0362  2AEE               	goto	i1l1900
  3566     0363                     u202_20:
  3567     0363                     i1l1922:
  3568                           
  3569                           ;MCAL_LAYER/GPIO/mcal_gpio.c: 94:                 (pin->port == PORTD_INDEX && pin->pin 
      +                          < 8) || (pin->port == PORTE_INDEX && pin->pin < 3)) {;MCAL_LAYER/GPIO/mcal_gpio.c: 95:  
      +                                     (*port_registers[pin->port] ^= (0x01 << pin->pin));
  3570     0363  3001               	movlw	1
  3571     0364  00F0               	movwf	??_gpio_pin_toggle_logic
  3572     0365  0875               	movf	gpio_pin_toggle_logic@pin,w
  3573     0366  0084               	movwf	4
  3574     0367  0C00               	rrf	0,w
  3575     0368  00F1               	movwf	??_gpio_pin_toggle_logic+1
  3576     0369  0CF1               	rrf	??_gpio_pin_toggle_logic+1,f
  3577     036A  0C71               	rrf	??_gpio_pin_toggle_logic+1,w
  3578     036B  3907               	andlw	7
  3579     036C  3E01               	addlw	1
  3580     036D  2B70               	goto	u203_24
  3581     036E                     u203_25:
  3582     036E  1003               	clrc
  3583     036F  0DF0               	rlf	??_gpio_pin_toggle_logic,f
  3584     0370                     u203_24:
  3585     0370  3EFF               	addlw	-1
  3586     0371  1D03               	skipz
  3587     0372  2B6E               	goto	u203_25
  3588     0373  0870               	movf	??_gpio_pin_toggle_logic,w
  3589     0374  00FF               	movwf	btemp+1
  3590     0375  0875               	movf	gpio_pin_toggle_logic@pin,w
  3591     0376  0084               	movwf	4
  3592     0377  0800               	movf	0,w
  3593     0378  3907               	andlw	7
  3594     0379  00F2               	movwf	??_gpio_pin_toggle_logic+2
  3595     037A  0772               	addwf	??_gpio_pin_toggle_logic+2,w
  3596     037B  3E20               	addlw	(low (_port_registers| 0))& (0+255)
  3597     037C  0084               	movwf	4
  3598     037D  0800               	movf	0,w
  3599     037E  00F3               	movwf	??_gpio_pin_toggle_logic+3
  3600     037F  0A84               	incf	4,f
  3601     0380  0800               	movf	0,w
  3602     0381  00F4               	movwf	??_gpio_pin_toggle_logic+4
  3603     0382  0873               	movf	??_gpio_pin_toggle_logic+3,w
  3604     0383  0084               	movwf	4
  3605     0384  1783               	bsf	3,7
  3606     0385  1C74               	btfss	??_gpio_pin_toggle_logic+4,0
  3607     0386  1383               	bcf	3,7
  3608     0387  087F               	movf	btemp+1,w
  3609     0388  0680               	xorwf	0,f
  3610     0389                     i1l261:	
  3611                           ;MCAL_LAYER/GPIO/mcal_gpio.c: 96:         } else {
  3612                           
  3613     0389  0008               	return
  3614     038A                     __end_of_gpio_pin_toggle_logic:
  3615     0005                     
  3616                           	psect	functab
  3617     002F                     __pfunctab:
  3618     002F                     fptable:
  3619     002F  282F               	goto	fptable	;no entries
  3620     0030                     __i1fptable:
  3621     0030                     i1fptable:
  3622     0030  00FF               	movwf	(btemp+1)& (0+127)
  3623     0031  3000               	movlw	high i1fptable
  3624     0032  008A               	movwf	10
  3625     0033  087F               	movf	(btemp+1)& (0+127),w
  3626     0034  0782               	addwf	2,f
  3627     0035                     i1fpbase:
  3628     0035  2835               	goto	i1fpbase	; Call via a null pointer and you will get stuck here.
  3629     0036                     fp__isr:
  3630     0036  120A  118A  2D82   	ljmp	_isr
  3631     0039                     fp__rb_isr:
  3632     0039  120A  118A  2D7B   	ljmp	_rb_isr
  3633     003C                     __end_of__i1fptable:
  3634     007E                     btemp	set	126	;btemp
  3635     007E                     wtemp0	set	126
  3636                           
  3637                           	psect	config
  3638                           
  3639                           ;Config register CONFIG @ 0x2007
  3640                           ;	Oscillator Selection bits
  3641                           ;	FOSC = EXTRC, RC oscillator
  3642                           ;	Watchdog Timer Enable bit
  3643                           ;	WDTE = OFF, WDT disabled
  3644                           ;	Power-up Timer Enable bit
  3645                           ;	PWRTE = OFF, PWRT disabled
  3646                           ;	Brown-out Reset Enable bit
  3647                           ;	BOREN = OFF, BOR disabled
  3648                           ;	Low-Voltage (Single-Supply) In-Circuit Serial Programming Enable bit
  3649                           ;	LVP = OFF, RB3 is digital I/O, HV on MCLR must be used for programming
  3650                           ;	Data EEPROM Memory Code Protection bit
  3651                           ;	CPD = OFF, Data EEPROM code protection off
  3652                           ;	Flash Program Memory Write Enable bits
  3653                           ;	WRT = OFF, Write protection off; all program memory may be written to by EECON control
  3654                           ;	In-Circuit Debugger Mode bit
  3655                           ;	DEBUG = 0x1, unprogrammed default
  3656                           ;	Flash Program Memory Code Protection bit
  3657                           ;	CP = OFF, Code protection off
  3658     2007                     	org	8199
  3659     2007  3F3B               	dw	16187

Data Sizes:
    Strings     3
    Constant    0
    Data        44
    BSS         10
    Persistent  0
    Stack       0

Auto Spaces:
    Space          Size  Autos    Used
    COMMON           14     11      14
    BANK0            80     12      63
    BANK1            80      0       0
    BANK3            96      0       0
    BANK2            96      0       0

Pointer List with Targets:

    Disable_INTX@intx$EXT_HANDLER	PTR FTN()void  size(1) Largest target is 0
		 -> isr(), 

    Disable_RBX@rbx$EXT_HIGH_INTERRUPT	PTR FTN()void  size(1) Largest target is 0
		 -> rb_isr(), 

    Disable_RBX@rbx$EXT_LOW_INTERRUPT	PTR FTN()void  size(1) Largest target is 0
		 -> rb_isr(), 

    Enable_INTX@intx$EXT_HANDLER	PTR FTN()void  size(1) Largest target is 1
		 -> isr(), 

    Enable_RBX@rbx	PTR const struct . size(1) Largest target is 3
		 -> rb2(BANK0[3]), 

    Enable_RBX@rbx$EXT_HIGH_INTERRUPT	PTR FTN()void  size(1) Largest target is 1
		 -> rb_isr(), 

    Enable_RBX@rbx$EXT_LOW_INTERRUPT	PTR FTN()void  size(1) Largest target is 1
		 -> rb_isr(), 

    EXT_INTX_HANDLER	PTR FTN()void  size(1) Largest target is 1
		 -> isr(), NULL(), 

    EXT_RB4_HIGH_HANDLER	PTR FTN()void  size(1) Largest target is 1
		 -> rb_isr(), NULL(), 

    EXT_RB4_LOW_HANDLER	PTR FTN()void  size(1) Largest target is 1
		 -> rb_isr(), NULL(), 

    EXT_RB5_HIGH_HANDLER	PTR FTN()void  size(1) Largest target is 1
		 -> rb_isr(), NULL(), 

    EXT_RB5_LOW_HANDLER	PTR FTN()void  size(1) Largest target is 1
		 -> rb_isr(), NULL(), 

    EXT_RB6_HIGH_HANDLER	PTR FTN()void  size(1) Largest target is 1
		 -> rb_isr(), NULL(), 

    EXT_RB6_LOW_HANDLER	PTR FTN()void  size(1) Largest target is 1
		 -> rb_isr(), NULL(), 

    EXT_RB7_HIGH_HANDLER	PTR FTN()void  size(1) Largest target is 1
		 -> rb_isr(), NULL(), 

    EXT_RB7_LOW_HANDLER	PTR FTN()void  size(1) Largest target is 1
		 -> rb_isr(), NULL(), 

    EXT_Rbx_Fun@rbx	PTR const struct . size(1) Largest target is 3
		 -> rb2(BANK0[3]), 

    EXT_Rbx_Fun@rbx$EXT_HIGH_INTERRUPT	PTR FTN()void  size(1) Largest target is 1
		 -> rb_isr(), 

    EXT_Rbx_Fun@rbx$EXT_LOW_INTERRUPT	PTR FTN()void  size(1) Largest target is 1
		 -> rb_isr(), 

    f$.$buffer	PTR unsigned char  size(1) Largest target is 0

    f$.$source	PTR const unsigned char  size(1) Largest target is 0

    gpio_pin_direction_initialize@pin	PTR const struct . size(1) Largest target is 3
		 -> Enable_INTX@pin_obj(COMMON[1]), pin1(BANK0[1]), pin2(BANK0[1]), rb2(BANK0[3]), 

    gpio_pin_initialize@pin	PTR const struct . size(1) Largest target is 1
		 -> pin1(BANK0[1]), pin2(BANK0[1]), 

    gpio_pin_toggle_logic@pin	PTR const struct . size(1) Largest target is 1
		 -> pin1(BANK0[1]), pin2(BANK0[1]), 

    gpio_pin_write_logic@pin	PTR const struct . size(1) Largest target is 1
		 -> pin1(BANK0[1]), pin2(BANK0[1]), 

    int1$EXT_HANDLER	PTR FTN()void  size(1) Largest target is 1
		 -> isr(), 

    port_registers	PTR volatile unsigned char [5] size(2) Largest target is 1
		 -> PORTA(SFR0[1]), PORTB(SFR0[1]), PORTC(SFR0[1]), PORTD(SFR0[1]), 
		 -> PORTE(SFR0[1]), 

    rb2$EXT_HIGH_INTERRUPT	PTR FTN()void  size(1) Largest target is 1
		 -> rb_isr(), 

    rb2$EXT_LOW_INTERRUPT	PTR FTN()void  size(1) Largest target is 1
		 -> rb_isr(), 

    S1192$buffer	PTR unsigned char  size(1) Largest target is 0

    S1192$source	PTR const unsigned char  size(1) Largest target is 0

    S473$EXT_HANDLER	PTR FTN()void  size(1) Largest target is 1
		 -> isr(), 

    S536$EXT_HIGH_INTERRUPT	PTR FTN()void  size(1) Largest target is 1
		 -> rb_isr(), 

    S536$EXT_LOW_INTERRUPT	PTR FTN()void  size(1) Largest target is 1
		 -> rb_isr(), 

    set_src_intx@intx$EXT_HANDLER	PTR FTN()void  size(1) Largest target is 1
		 -> isr(), 

    sp__memset	PTR void  size(1) Largest target is 0

    tris_registers	PTR volatile unsigned char [5] size(2) Largest target is 1
		 -> TRISA(SFR1[1]), TRISB(SFR1[1]), TRISC(SFR1[1]), TRISD(SFR1[1]), 
		 -> TRISE(SFR1[1]), 

    vfprintf$0	PTR struct _IO_FILE size(1) Largest target is 11
		 -> sprintf@f(COMMON[11]), 

    vfprintf$1	PTR const unsigned char  size(1) Largest target is 3
		 -> STR_1(CODE[3]), STR_2(CODE[3]), STR_3(CODE[3]), 

    vfprintf$2	PTR PTR void  size(1) Largest target is 1
		 -> sprintf@ap(COMMON[1]), 


Critical Paths under _main in COMMON

    None.

Critical Paths under _InterruptManager in COMMON

    _InterruptManager->_ISR_RB4
    _InterruptManager->_ISR_RB5
    _InterruptManager->_ISR_RB6
    _InterruptManager->_ISR_RB7
    _rb_isr->_gpio_pin_toggle_logic
    _isr->_gpio_pin_toggle_logic

Critical Paths under _main in BANK0

    _ecu_initialzie->_gpio_pin_initialize
    _gpio_pin_initialize->_gpio_pin_write_logic
    _Enable_RBX->_gpio_pin_direction_initialize

Critical Paths under _InterruptManager in BANK0

    None.

Critical Paths under _main in BANK1

    None.

Critical Paths under _InterruptManager in BANK1

    None.

Critical Paths under _main in BANK3

    None.

Critical Paths under _InterruptManager in BANK3

    None.

Critical Paths under _main in BANK2

    None.

Critical Paths under _InterruptManager in BANK2

    None.

Call Graph Tables:

 ---------------------------------------------------------------------------------
 (Depth) Function   	        Calls       Base Space   Used Autos Params    Refs
 ---------------------------------------------------------------------------------
 (0) _main                                                 0     0      0    3867
                         _Enable_RBX
             _apllication_initilaize
 ---------------------------------------------------------------------------------
 (1) _apllication_initilaize                               0     0      0    3052
                     _ecu_initialzie
 ---------------------------------------------------------------------------------
 (2) _ecu_initialzie                                       0     0      0    3052
                _gpio_pin_initialize
 ---------------------------------------------------------------------------------
 (3) _gpio_pin_initialize                                  4     4      0    3052
                                              8 BANK0      4     4      0
      _gpio_pin_direction_initialize
               _gpio_pin_write_logic
 ---------------------------------------------------------------------------------
 (4) _gpio_pin_write_logic                                 8     7      1    2012
                                              0 BANK0      8     7      1
 ---------------------------------------------------------------------------------
 (1) _Enable_RBX                                           2     2      0     815
                                              7 BANK0      1     1      0
                        _EXT_Rbx_Fun
      _gpio_pin_direction_initialize
 ---------------------------------------------------------------------------------
 (4) _gpio_pin_direction_initialize                        7     7      0     476
                                              0 BANK0      7     7      0
 ---------------------------------------------------------------------------------
 (2) _EXT_Rbx_Fun                                          2     2      0     231
                                              0 BANK0      2     2      0
 ---------------------------------------------------------------------------------
 Estimated maximum stack depth 4
 ---------------------------------------------------------------------------------
 (Depth) Function   	        Calls       Base Space   Used Autos Params    Refs
 ---------------------------------------------------------------------------------
 (5) _InterruptManager                                     4     4      0    1893
                                              7 COMMON     4     4      0
                           _ISR_INTX
                            _ISR_RB4
                            _ISR_RB5
                            _ISR_RB6
                            _ISR_RB7
 ---------------------------------------------------------------------------------
 (6) _ISR_RB7                                              1     1      0     383
                                              6 COMMON     1     1      0
                                NULL *
                             _rb_isr *
 ---------------------------------------------------------------------------------
 (6) _ISR_RB6                                              1     1      0     383
                                              6 COMMON     1     1      0
                                NULL *
                             _rb_isr *
 ---------------------------------------------------------------------------------
 (6) _ISR_RB5                                              1     1      0     383
                                              6 COMMON     1     1      0
                                NULL *
                             _rb_isr *
 ---------------------------------------------------------------------------------
 (6) _ISR_RB4                                              1     1      0     383
                                              6 COMMON     1     1      0
                                NULL *
                             _rb_isr *
 ---------------------------------------------------------------------------------
 (7) _rb_isr                                               0     0      0     361
              _gpio_pin_toggle_logic
 ---------------------------------------------------------------------------------
 (6) _ISR_INTX                                             0     0      0     361
                                NULL *
                                _isr *
 ---------------------------------------------------------------------------------
 (7) _isr                                                  0     0      0     361
              _gpio_pin_toggle_logic
 ---------------------------------------------------------------------------------
 (8) _gpio_pin_toggle_logic                                7     7      0     361
                                              0 COMMON     6     6      0
 ---------------------------------------------------------------------------------
 (7) NULL(Fake)                                            0     0      0       0
 ---------------------------------------------------------------------------------
 Estimated maximum stack depth 8
 ---------------------------------------------------------------------------------

 Call Graph Graphs:

 _main (ROOT)
   _Enable_RBX
     _EXT_Rbx_Fun
     _gpio_pin_direction_initialize
   _apllication_initilaize
     _ecu_initialzie
       _gpio_pin_initialize
         _gpio_pin_direction_initialize
         _gpio_pin_write_logic

 _InterruptManager (ROOT)
   _ISR_INTX
     NULL(Fake) *
     _isr *
       _gpio_pin_toggle_logic
   _ISR_RB4
     NULL(Fake) *
     _rb_isr *
       _gpio_pin_toggle_logic
   _ISR_RB5
     NULL(Fake) *
     _rb_isr *
   _ISR_RB6
     NULL(Fake) *
     _rb_isr *
   _ISR_RB7
     NULL(Fake) *
     _rb_isr *

 Address spaces:
Name               Size   Autos  Total    Cost      Usage
BANK3               60      0       0       9        0.0%
BITBANK3            60      0       0       8        0.0%
SFR3                 0      0       0       4        0.0%
BITSFR3              0      0       0       4        0.0%
BANK2               60      0       0      11        0.0%
BITBANK2            60      0       0      10        0.0%
SFR2                 0      0       0       5        0.0%
BITSFR2              0      0       0       5        0.0%
BANK1               50      0       0       7        0.0%
BITBANK1            50      0       0       6        0.0%
SFR1                 0      0       0       2        0.0%
BITSFR1              0      0       0       2        0.0%
BANK0               50      C      3F       5       78.8%
BITBANK0            50      0       0       4        0.0%
SFR0                 0      0       0       1        0.0%
BITSFR0              0      0       0       1        0.0%
COMMON               E      B       E       1      100.0%
BITCOMMON            E      0       0       0        0.0%
CODE                 0      0       0       0        0.0%
DATA                 0      0      4D      12        0.0%
ABS                  0      0      4D       3        0.0%
NULL                 0      0       0       0        0.0%
STACK                0      0       0       2        0.0%
EEDATA             100      0       0       0        0.0%


Microchip Technology PIC Macro Assembler V2.46 build 20240104201356 
Symbol Table                                                                                   Sun Aug 04 12:45:07 2024

                   ??_InterruptManager 0077                                      pc 0002  
                                   fsr 0004                                    l140 0564  
                                  l225 0209                                    l423 0461  
                                  l407 0521                                    l169 02E4  
                                  l185 02E7                                    l409 0535  
                                  l278 0422                                    l490 0554  
                                  l495 058E                                    l489 0554  
                                  _rb2 0047                                    _lcd 0034  
                                  _isr 0582                                    fsr0 0004  
                                  indf 0000                                   l2080 0520  
                                 l2082 0525                                   l2090 0589  
                                 l2084 052C                                   l2076 051B  
                                 l2086 0534                                   l2078 051B  
                                 l1800 016C                                   l1810 01A9  
                                 l1802 017A                                   l1812 01D0  
                                 l1804 0183                                   l1830 0213  
                                 l1806 0191                                   l1840 0243  
                                 l1832 0214                                   l1808 019A  
                                 l1816 01F8                                   l1850 027A  
                                 l1842 024C                                   l1834 021E  
                                 l1826 020D                                   l1818 0208  
                                 l2474 0549                                   l1860 02E6  
                                 l1852 0289                                   l1844 025A  
                                 l1836 022C                                   l1828 020E  
                                 l1854 02B1                                   l1846 0263  
                                 l1838 0235                                   l1790 0134  
                                 l1870 0396                                   l1848 0271  
                                 l2496 0200                                   l1792 013E  
                                 l1784 012B                                   l1880 03CE  
                                 l1872 03A0                                   l1864 038D  
                                 l1970 0439                                   l1858 02D8  
                                 l1794 014C                                   l1786 012C  
                                 l1882 03DC                                   l1890 040A  
                                 l1874 03AE                                   l1866 038E  
                                 l1962 0558                                   l1972 0442  
                                 l1964 0426                                   l1796 0155  
                                 l1788 0131                                   l1884 03E5  
                                 l1876 03B7                                   l1892 041F  
                                 l1868 0393                                   l1966 0427  
                                 l1798 0163                                   l1886 03F3  
                                 l1878 03C5                                   l1968 0430  
                                 l1976 044B                                   l1888 03FC  
                                 ?_isr 0070                                   STR_1 0578  
                                 u1600 016C                                   u1601 016B  
                                 u1610 017A                                   u1611 0179  
                                 u1700 022C                                   u1620 0183  
                                 u1701 022B                                   u1621 0182  
                                 u1710 0235                                   u1630 0191  
                                 u1550 0131                                   u1711 0234  
                                 u1631 0190                                   u1551 0130  
                                 u1720 0243                                   u2280 0520  
                                 u1640 019A                                   u1560 013E  
                                 u1721 0242                                   u2281 051F  
                                 u1641 0199                                   u1561 013D  
                                 u1730 024C                                   u1650 01A8  
                                 u1570 014C                                   u1810 0393  
                                 u1731 024B                                   u1651 01A7  
                                 u1571 014B                                   u1811 0392  
                                 u1804 02BE                                   u1740 025A  
                                 u1580 0155                                   u1900 03FC  
                                 u1820 03A0                                   u1805 02BC  
                                 u1741 0259                                   u1581 0154  
                                 u1901 03FB                                   u1821 039F  
                                 u1750 0263                                   u1590 0163  
                                 u1910 040A                                   u1830 03AE  
                                 u1751 0262                                   u1591 0162  
                                 u1911 0409                                   u1831 03AD  
                                 u1760 0271                                   u1680 0213  
                                 u1664 01B6                                   u1840 03B7  
                                 u1761 0270                                   u1681 0212  
                                 u1665 01B4                                   u1841 03B6  
                                 u1770 027A                                   u1690 021E  
                                 u1674 01DD                                   u1850 03C5  
                                 u1771 0279                                   u1691 021D  
                                 u1675 01DB                                   u1851 03C4  
                                 u1780 0288                                   u1860 03CE  
                                 u1781 0287                                   u1861 03CD  
                                 u1870 03DC                                   u1871 03DB  
                                 u1880 03E5                                   u1881 03E4  
                                 u1794 0296                                   u1890 03F3  
                                 u1795 0294                                   u1891 03F2  
                      __end_of_ISR_RB4 0518                        __end_of_ISR_RB5 04F7  
                      __end_of_ISR_RB6 04D4                        __end_of_ISR_RB7 04B1  
                                 _int1 003A                                   _main 0549  
                                 _pin1 004B                                   _pin2 004A  
                                 _pin3 0046                                   _pin4 0045  
                                 _pin5 0044                                   _pin6 0043  
                                 _pin7 0042                                   _pin8 0041  
                                 btemp 007E                                   start 0010  
                  _EXT_RB4_LOW_HANDLER 005E                 ?_gpio_pin_toggle_logic 0070  
                           _Enable_RBX 0518                   _gpio_pin_write_logic 0128  
                                ??_isr 0076                                  ?_main 0070  
                                i1l261 0389                                  i1l346 0571  
                                i1l355 0517                                  i1l451 0099  
                                i1l364 04F6                                  i1l373 04D3  
                                i1l453 00B3                                  i1l445 0049  
                                i1l382 04B0                                  i1l462 011D  
                                i1l455 00CE                                  i1l447 0064  
                                i1l480 0581                                  i1l457 00E8  
                                i1l449 007E                                  i1l459 0103  
                                i1l477 0588                                  _PORTA 0005  
                                _PORTB 0006                                  _PORTC 0007  
                                _PORTD 0008                                  _PORTE 0009  
                                _TRISA 0085                                  _TRISB 0086  
                                _TRISC 0087                                  _TRISD 0088  
                                _TRISE 0089                       __end_of_ISR_INTX 0572  
                 _EXT_RB7_HIGH_HANDLER 0059                                  fpbase 0000  
                                pclath 000A                                  status 0003  
                                wtemp0 007E                    _EXT_RB5_LOW_HANDLER 005C  
       ?_gpio_pin_direction_initialize 0070                        __initialization 0013  
                         __end_of_main 0558                  ?_gpio_pin_write_logic 004C  
                         ?_EXT_Rbx_Fun 0070                                 ??_main 0058  
                     _EXT_INTX_HANDLER 007D                              ??_ISR_RB4 0076  
                            ??_ISR_RB5 0076                              ??_ISR_RB6 0076  
                            ??_ISR_RB7 0076                                 i1l2022 0565  
                               i1l2030 04F9                                 i1l2024 0566  
                               i1l2032 04FE                                 i1l2040 04D5  
                               i1l2026 056B                                 i1l2034 0503  
                               i1l2050 04F0                                 i1l2042 04D6  
                               i1l2036 050A                                 i1l2028 04F8  
                               i1l2044 04DB                                 i1l2060 04C6  
                               i1l2052 04B2                                 i1l2038 0511  
                               i1l2046 04E2                                 i1l2062 04CD  
                               i1l2054 04B3                                 i1l2070 049C  
                               u200_20 034C                                 i1l2048 04E9  
                               i1l2056 04B8                                 i1l2072 04A3  
                               i1l2064 048F                                 i1l2400 005C  
                               u200_21 034B                                 i1l2058 04BF  
                               i1l2074 04AA                                 i1l2066 0490  
                               i1l2410 0077                                 i1l2402 005E  
                               i1l2068 0495                                 i1l2420 0091  
                               i1l2412 0078                                 i1l2404 0068  
                               i1l2430 00AC                                 i1l2422 0093  
                               i1l2414 0082                                 i1l2406 006C  
                               u201_20 0355                                 i1l2440 00C6  
                               i1l2432 00AD                                 i1l2424 009D  
                               i1l2416 0086                                 i1l2408 0072  
                               u201_21 0354                                 i1l2450 00E1  
                               i1l2442 00C8                                 i1l2434 00B7  
                               i1l2426 00A1                                 i1l2418 008C  
                               i1l1900 02EE                                 i1l2460 00FB  
                               i1l2452 00E2                                 i1l2444 00D2  
                               i1l2436 00BB                                 i1l2428 00A7  
                               i1l1910 031E                                 i1l1902 02EF  
                               i1l2470 0116                                 i1l2462 00FD  
                               i1l2454 00EC                                 i1l2446 00D6  
                               i1l2438 00C1                                 i1l2390 0040  
                               u202_20 0363                                 i1l1920 0355  
                               i1l1912 0327                                 i1l1904 02F9  
                               i1l2472 0117                                 i1l2464 0107  
                               i1l2456 00F0                                 i1l2448 00DC  
                               i1l2392 0044                                 u202_21 0362  
                               i1l1914 0335                                 i1l1922 0363  
                               i1l1906 0307                                 i1l2466 010B  
                               i1l2458 00F6                                 i1l2394 004D  
                               i1l1916 033E                                 i1l1908 0310  
                               i1l2468 0111                                 i1l2396 0051  
                               i1l2388 003C                                 i1l1918 034C  
                               i1l2398 0057                                 u203_24 0370  
                               i1l1980 057B                                 u203_25 036E  
                               i1l1896 02E9                                 u220_20 04E2  
                               u300_20 00F0                                 u220_21 04E1  
                               u300_21 00EF                                 i1l1898 02E9  
                               i1l1978 0582                                 u221_20 04F0  
                               u301_20 00F6                                 u221_21 04EF  
                               u301_21 00F5                                 u222_20 04B8  
                               u302_20 00FB                                 u222_21 04B7  
                               u302_21 00FA                                 u215_20 056B  
                               u223_20 04BF                                 u303_20 0107  
                               u215_21 056A                                 u223_21 04BE  
                               u303_21 0106                                 u216_20 04FE  
                               u224_20 04CD                                 u304_20 010B  
                               u216_21 04FD                                 u224_21 04CC  
                               u304_21 010A                                 u217_20 0503  
                               u225_20 0495                                 u305_20 0111  
                               u217_21 0502                                 u225_21 0494  
                               u305_21 0110                                 u218_20 0511  
                               u226_20 049C                                 u306_20 0116  
                               u218_21 0510                                 u226_21 049B  
                               u306_21 0115                                 u219_20 04DB  
                               u227_20 04AA                                 u219_21 04DA  
                               u227_21 04A9                                 u192_20 02EE  
                               u280_20 006C                                 u192_21 02ED  
                               u280_21 006B                                 u193_20 02F9  
                               u281_20 0072                                 u273_20 0040  
                               u193_21 02F8                                 u281_21 0071  
                               u273_21 003F                                 u194_20 0307  
                               u290_20 00AC                                 u282_20 0077  
                               u274_20 0044                                 u194_21 0306  
                               u290_21 00AB                                 u282_21 0076  
                               u274_21 0043                                 u195_20 0310  
                               u291_20 00B7                                 u283_20 0082  
                               u275_20 004D                                 u195_21 030F  
                               u291_21 00B6                                 u283_21 0081  
                               u275_21 004C                                 u196_20 031E  
                               u292_20 00BB                                 u284_20 0086  
                               u276_20 0051                                 u196_21 031D  
                               u292_21 00BA                                 u284_21 0085  
                               u276_21 0050                                 u197_20 0327  
                               u293_20 00C1                                 u285_20 008C  
                               u277_20 0057                                 u197_21 0326  
                               u293_21 00C0                                 u285_21 008B  
                               u277_21 0056                                 u198_20 0335  
                               u294_20 00C6                                 u286_20 0091  
                               u278_20 005C                                 u198_21 0334  
                               u294_21 00C5                                 u286_21 0090  
                               u278_21 005B                                 u199_20 033E  
                               u295_20 00D2                                 u287_20 009D  
                               u279_20 0068                                 u199_21 033D  
                               u295_21 00D1                                 u287_21 009C  
                               u279_21 0067                                 u296_20 00D6  
                               u288_20 00A1                                 u296_21 00D5  
                               u288_21 00A0                                 u297_20 00DC  
                               u289_20 00A7                                 u297_21 00DB  
                               u289_21 00A6                                 u298_20 00E1  
                               u298_21 00E0                                 u299_20 00EC  
                               u299_21 00EB                             __i1fptable 0030  
             gpio_pin_toggle_logic@pin 0075                    _EXT_RB6_LOW_HANDLER 005A  
                          ?_Enable_RBX 0070                                 _rb_isr 057B  
                               _motor1 003E                                 _motor2 003C  
                               fp__isr 0036                                 fptable 002F  
                               fptotal 0000                                 saved_w 007E  
              __end_of__initialization 002B                    _EXT_RB7_LOW_HANDLER 0058  
                            ?_ISR_INTX 0070                 ??_gpio_pin_write_logic 004D  
                       __pcstackCOMMON 0070                           __pidataBANK0 0462  
                       _OPTION_REGbits 0081                             __pbssBANK0 0058  
              ??_gpio_pin_toggle_logic 0070                             ??_ISR_INTX 0076  
                           __pmaintext 0549                             __pintentry 0004  
                              ?_rb_isr 0070                                _ISR_RB4 04F7  
                              _ISR_RB5 04D4                                _ISR_RB6 04B1  
                              _ISR_RB7 048E                             __stringtab 0572  
                       _tris_registers 002A                                i1fpbase 0035  
                  _gpio_pin_initialize 038A                                __ptext1 0589  
                              __ptext2 0558                                __ptext3 038A  
                              __ptext4 0128                                __ptext5 0518  
                              __ptext6 020A                                __ptext7 0423  
                              __ptext8 003C                                __ptext9 048E  
             ??_apllication_initilaize 0058                    __size_of__i1fptable 000C  
      ??_gpio_pin_direction_initialize 004C                                _counter 007B  
                 ?_gpio_pin_initialize 0070                   end_of_initialization 002B  
                        Enable_RBX@rbx 0053                           ??_Enable_RBX 0053  
                            _PORTBbits 0006                         _ecu_initialzie 0558  
                     _InterruptManager 003C                  ??_gpio_pin_initialize 0054  
                     Enable_INTX@F1629 0040                     __end_of_Enable_RBX 0536  
               __end_of_ecu_initialzie 0565                         __end_of_rb_isr 0582  
                  start_initialization 0013                            __end_of_isr 0589  
__end_of_gpio_pin_direction_initialize 02E8          _gpio_pin_direction_initialize 020A  
        __end_of_gpio_pin_toggle_logic 038A                             init_fetch0 0536  
                          __pdataBANK0 0020                               ??_rb_isr 0076  
                      ?_ecu_initialzie 0070                         EXT_Rbx_Fun@rbx 004D  
                   __end_of__i1fptable 003C                            __pbssCOMMON 007B  
                            ___latbits 0002                          __pcstackBANK0 004C  
                             ?_ISR_RB4 0070                               ?_ISR_RB5 0070  
                             ?_ISR_RB6 0070                               ?_ISR_RB7 0070  
               _apllication_initilaize 0589                               ISR_RB4@n 0076  
                             ISR_RB5@n 0076                               ISR_RB6@n 0076  
                             ISR_RB7@n 0076                              __pfunctab 002F  
                        ??_EXT_Rbx_Fun 004C              gpio_pin_write_logic@logic 004C  
                            __pstrings 0572                   _EXT_RB4_HIGH_HANDLER 007C  
                    interrupt_function 0004               __end_of_InterruptManager 0128  
                             _ISR_INTX 0565       gpio_pin_direction_initialize@pin 0052  
     gpio_pin_direction_initialize@ret 0051                              fp__rb_isr 0039  
                          __stringbase 0577                    __end_of_EXT_Rbx_Fun 0462  
               gpio_pin_initialize@pin 0057                 gpio_pin_initialize@ret 0056  
                             i1fptable 0030                gpio_pin_write_logic@pin 0053  
              gpio_pin_write_logic@ret 0052                               i1fptotal 0005  
                   __end_of__stringtab 0578            __end_of_gpio_pin_initialize 0423  
                 _EXT_RB5_HIGH_HANDLER 005D                               __ptext10 04B1  
                             __ptext11 04D4                               __ptext12 04F7  
                             __ptext13 057B                               __ptext14 0565  
                             __ptext15 0582                               __ptext16 02E8  
                     ??_ecu_initialzie 0058                            _EXT_Rbx_Fun 0423  
                           _INTCONbits 000B                               init_ram0 053A  
         __end_of_gpio_pin_write_logic 020A                ?_apllication_initilaize 0070  
                             intlevel1 002F                              stringcode 0572  
                _gpio_pin_toggle_logic 02E8                         _port_registers 0020  
                             stringdir 0572                               stringtab 0572  
       __end_of_apllication_initilaize 058F                   _EXT_RB6_HIGH_HANDLER 005B  
                    ?_InterruptManager 0070  
